69	183	bite evernote password hacked
893	216	comprehensive type diabetes care diabetes comprehensive type diabetes care
69	183	evernote reset user password intrusion payment data accessed
69	183	evernote hacked emails encrypted password stolen
69	183	evernote signs hacking feb emails passwords usernames accessed tech news
69	183	evernote hacked encrypted passwords stolen log evernote
69	183	evernote signs hacking emails passwords usernames accessed data payment details
886	180	sherlock watson british sherlock ll female american joan watson ll wear bra
69	183	evernote blog security notice service wide password reset
69	183	socialmedia evernote signs hacking feb emails passwords usernames accessed
69	183	evernote signs hacking feb emails passwords usernames accessed te
31	146	maine quietly mounting massive support historic gmo labeling bill
40	218	florida man swallowed sinkhole feared dead
69	183	evernote issue site wide password reset hacker access user detail popular note storing service evernote revealed
69	183	evernote implemented service wide password reset read gt
69	183	evernote hacked company forces password reset
69	183	evernote issue site wide password reset hacker access user detail popular note storing service evernote
922	144	shocking downton abbey departure brien leaving downton abbey masterpiece downtonabbey
69	183	evernote security notice service wide password reset
69	183	evernote issue site wide password reset hacker access user detail popular note storing service eve
40	218	sinkhole swallowed tampa man bedroom grows deeper
69	183	wondering prompted password reset implemented service wide password reset
882	167	sequestration star trek term wrath gop partisan politics worst
69	183	evernote user gonna change password evernote morning announced rash
40	218	growth sinkhole devoured florida man threatens destruction york times york
69	183	evernote hacked emails encrypted password stolen suggested change password
69	183	evernote reset password user stolen security breach
69	183	decent mechanism shouldn reset user password guessing evernote
69	183	evernote hacked emails encrypted password stolen cloud service evernote hacked
69	183	evernote breach user payment info user note
40	218	sign florida man swallowed sinkhole asleep
69	183	hackers breach evernote security based online storage firm evernote asks user reset
40	218	work continues sinkhole swallowed man seffner fla ap engineers worked gingerly saturday fi
69	183	change password hackers breach evernote security
40	218	fla sinkhole grows deeper swallowing man
69	183	giz evernote hacked encrypted passwords stolen
69	183	evernote hacked encrypted passwords stolen good read
69	183	evernote hacked gonna change password
40	218	news sinkhole victim missing listening device camera detect sign life chicago tribune
146	183	evernote security breached hacker bbc news bbc security technews tech
104	141	oz film mila kunis pretty sick
882	167	sequestration furlough working family paycheck gop fight tax loophole rich
69	183	online note service evernote latest firm hacked
69	183	hackers breach evernote security based online storage fir autofollow
69	183	hackers breach evernote security based online storage firm evernote asks user worldwide reset
69	183	hackers breach evernote security based online storage firm evernote asks
40	218	work continues sinkhole swallowed man
69	183	hackers breach evernote security based online storage firm evernote asks
69	183	hackers breach evernote security based online storage firm evernote asks mill news
886	180	learned bbc sherlock
40	218	update residents evacuated house door site florida sinkhole
55	157	kim help maternity style
69	183	benefit hackers breach evernote security based online storage firm evernote asks al
40	218	sinkhole swallow man sleeping bed
69	183	evernote hacked passwords reset security breach
69	183	online note service evernote latest firm hacked company fallen victim social
69	183	online note service evernote latest firm hacked company fallen victim hack
40	218	sinkhole swallowed florida man unstable expected grow usa
40	218	update sinkhole swallows seffner man sleeping bed brandon fl patch
891	126	don pitbull fails rapper pop star wayne rapper
55	157	kim kardashian enjoys girls night vasquez writes mommy magazine girls
146	183	evernote breached bbc minute hacked
69	183	based online storage firm evernote asks user worldwide
69	183	hackers breach evernote security based online storage firm evernote asks
40	218	update residents evacuated house door site florida sinkhole
69	183	evernote hacked password reset security breach
40	218	man rescue brother sinkhole emotional testimony
55	157	kim kardashian enjoys girls night vasquez writes mommy blog pregnancy style
889	128	putting vintage clothes online
40	218	engineers slowly continue work florida sinkhole swallowed man news medicine hat news
40	218	man disappeared giant sinkhole florida emotional interview
69	183	evernote issues security update forces password change bizitalk
890	123	saturday space sight sun
69	183	evernote issue site wide password reset hacker access user detail
1079	179	dance partner mother nature sport dog iditarod
69	183	evernote issue site wide password reset hacker access user detail
69	183	boy evernote hacked exploit wild cyber wild west
69	183	evernote signs hacking feb emails passwords usernames accessed techcrunch
69	183	evernote issues service wide password reset today received email evernote team
69	183	evernote hacked encrypted passwords stolen
69	183	evernote hacked evidence content accessed changed lost
40	218	brandon news residents evacuated seffner sinkhole
902	115	rogers beautiful day neighborhood
69	183	online note service evernote latest firm hacked
69	183	evernote hacked reset password security infosec
1426	121	dr keith devlin moocs myths dropout rates certification moocs
69	183	post evernote security notice service wide password reset
69	183	better change evernote password
40	218	engineers ascertain scope florida sinkhole
69	183	evernote hacked
40	218	florida sinkhole continues grow victim recovered florida sinkhole swallowed
40	218	florida resident swallowed sinkhole bedroom floor collapsed fell ap
69	183	apple evernote issues password reset security breach ios blog
69	183	evernote issues password reset security breach ios blog note service evernote today released
1079	223	neighbor left dog leash stayed minute fun playing rock
40	218	growth sinkhole devoured florida man threatens destruction sign saturday
886	180	playing strange sherlock holmes pc game holmes currently romance criminal
69	183	xc resecurity evernote hacked force password reset popular multi platform note infosec netsec
40	218	sinkhole situation seffner compromised
69	183	online attack evernote service wide password resets evernote online note app
48	195	ben affleck damn fine movie maker watched argo loved bad affleck
69	183	evernote issue site wide password reset hacker access user detail
896	126	pitbull dade county lil wayne diss harlem shake remix
40	218	sinkhole swallowed florida man damage engineer fox news
139	120	argentina shadow imf
69	183	passwords reset evernote
69	183	evernote resets user passwords security breach
40	218	sinkhole swallowed florida man damage engineer fox news sinkhole
922	144	brien leaving downton abbey actress siobhan finneran confirms departure
886	180	books spring reading classic sherlock holmes
40	218	sign florida man swallowed sinkhole asleep yahoo news
69	183	cyber war news evernote hacked hacker steal password
62	183	add evernote list hacked companies
69	183	evernote resets user passwords security breach uncategorized
69	183	evernote security compromised
69	183	evernote hacked security overhaul
40	218	days officials mull attempt recover body sinkhole video dangers sinkhole video
40	218	rescuers effort find body man swallowed fla sinkhole demolished bizarre sad
40	218	breakingnews florida county demolish sinkhole sunday body remain underneath
40	218	sad florida sinkhole dangerous rescuers search missing man
69	183	evernote resets user passwords security breach evernote
40	218	rescuers effort find body fla sinkhole seffner fla ap officials called effort
532	123	nasa devastating solar storm coming
40	218	poor man disappeared sinkhole florida sad
69	183	evernote security compromised
69	183	slashdot evernote security compromised
69	183	evernote resets user passwords security breach evernote implemented service wide password reset
40	218	efforts save man disappeared sinkhole opened bedroom authority cnn
40	218	officials move demolition phase florida sinkhole site rescue effort ended
69	183	evernote resets user passwords security breach evernote implemented service wide password reset
69	183	evernote resets user passwords security breach evernote implemented service wide
36	205	riots protest death sentence enter day bangladesh
40	218	rescuers effort find body fla sinkhole
40	218	ap news rescuers effort find body fla sinkhole
40	218	rescuers effort find body fla sinkhole
69	183	evernote hack exposes user data forces extensive password resets tech
69	183	evernote hacked time change passwords
69	183	evernote hacked time change passwords note service evernote announced
40	218	video sign florida man swallowed sinkhole
40	218	sleep earth gonna eat recovery effort florida man presumed dead sinkhole
69	183	evernote hacked time change passwords
69	183	evernote hack exposes user data forces extensive password resets
69	183	evernote reset password
69	183	evernote hack exposes user data forces extensive password resets hacker life
40	218	fla sinkhole swallowed man grows deeper yahoo news
40	218	poor man lost brother florida sinkhole horrible
69	183	evernote password hacked
922	144	downton abbey season cast adds shirley maclaine will poker entertainment
922	144	comings going downton abbey season
69	183	time change evernote password security notice service wide password reset evernote
69	183	evernote hacked cyberwar
69	183	evernote hack exposes user data forces extensive password resets
40	218	sinkhole victim search called rescue team florida call effort recover body man sw
40	218	sinkhole victim search called
69	183	evernote hack exposes user data forces extensive password resets threat level
40	218	rescuers effort find body florida sinkhole officials called effort recover body
40	218	florida sinkhole rescuers search man swallowed ft sinkhole brother insurer
922	144	downton abbey season cast adds hollywood reporter share friends top news
69	183	evernote password hacked
69	183	evernote hacked change password
40	218	recovery effort man swallowed sinkhole rescue crew called effort recover abc news
48	195	watched argo good oscar good imho
40	218	effort ends find florida man sinkhole saturday crew learn sinkhole county
1571	111	du ongoing drought force second year water texas rice grower
922	144	downton abbey regular departs announces cast members
922	144	downton abbey regular departs announces cast members
884	161	printed car ready download amp strong steel amp weight video
77	158	hush puppy honey spread
40	218	search called florida man swallowed sinkhole follow remaoerlando
1573	167	sequestration opportunity gut safety net protect banksters
55	157	kim lt gt kardashian lt gt maternity
40	218	google search called florida man swallowed sinkhole
922	144	star save downton abbey
69	183	evernote security compromised
69	183	evernote hacked resets passwords
69	183	massive evernote security breach passwords reset
907	223	dog behavior dog
40	218	body fla sinkhole recover cbs news entrepreneur tech
40	218	join bnp video sinkhole victim search called rescue team florida hav rochdale heywood
40	218	rescuers effort find florida man body sinkhole
40	218	rescuers effort find florida man body sinkhole effort find body man swall
40	218	search called florida man swallowed sinkhole
886	180	cry cry dont watch bbc sherlock enjoy pain
902	115	photo obit day historical rogers february mark
40	218	body fla sinkhole recover
69	183	evernote note sharing service hacker stole user data
69	183	evernote note sharing service hacker stole user data reuters
69	183	evernote note sharing service hacker stole user data mytk life
40	218	recovery effort florida man presumed dead sinkhole
69	183	online note service evernote latest firm hacked
886	180	bbc sherlock benedict cumberbatch best tv time acting writing superb
69	183	online note service evernote latest firm hacked
40	218	rescuers effort find body fla sinkhole
69	183	evernote security breach will trust cloud service lt properly designed
69	183	tech evernote note sharing service hacker stole user data reuters
69	183	evernote hacked evernote log amp change password
69	183	evernote hacked encrypted passwords stolen
1126	214	alaska texas reject common core standards
40	218	recovery effort florida man presumed dead sinkhole seffner florida reuters florida rescue wo
1428	126	seed pitbull big kid cudi billboard
40	218	crews effort find man sinkhole florida rescue worker ended effort recover body
40	218	recovery effort florida man presumed dead sinkhole
890	123	solar eclipse space moon pass sun earth
204	111	drought interest
40	218	crews effort find man sinkhole
69	183	technews evernote order password reset hacking cnn
48	195	people argo oscar political reason watched movie ass
1428	126	seed pitbull big kid cudi
69	183	evernote order password reset hacking cnn times order password reset hacking
1203	170	argo tony mendez case left
69	183	wrong evernote heard server hacked password compromised
40	218	search called man swallowed sinkhole fort worth star telegram fort worth star cal
69	183	evernote shoot foot click reset password request advice
69	183	cybersecurity evernote shoot foot click reset password request advice infosec
889	128	clothing amp amp accessories swarovski crystal stack bracelet redeem online
40	218	search florida sinkhole victim jeffrey bush presumed dead seffner tampa sinkhole
69	183	evernote hacked asks password reset
77	158	photo catfish green hush puppy
69	183	evernote hacked asks password reset
69	183	evernote hacked asks password reset online note archiving service evernote required mi
69	183	cnn twtrfeed evernote hacked asks password reset
69	183	evernote hacked asks password reset online note archiving service evernote required mi
890	123	gustado deo double ribbon flare captured filament eruption march
69	183	evernote hacked asks password reset online note archiving service evernote required mi
40	218	recovery effort florida man presumed dead sinkhole seffner florida reuters florida rescue wo
40	218	efforts retrieve man florida sinkhole stopped los angeles times news amp
69	183	evernote password hacked
40	218	efforts retrieve man florida sinkhole stopped
104	141	kunis weisz williams oz cast crew oz great powerful knew
40	218	efforts retrieve man florida sinkhole stopped los angeles times san francisco
40	218	efforts retrieve man florida sinkhole stopped los angeles times san francisco
40	218	body sinkhole won recovered unable rescue man devoured giant sinkhole worker will start
40	218	florida man devoured sinkhole demolished cnn international news
40	218	body sinkhole won recovered unable rescue man devoured giant sinkhole worker will start
40	218	body sinkhole won recovered unable rescue man devoured giant sinkhole worker will start
40	218	body sinkhole won recovered unable rescue man devoured giant sinkhole worker will start
48	195	rated argo imdb
69	183	evernote resets passwords service hacked abc news
104	141	wanna watch oz movie mila kunis alert
40	218	florida man devoured sinkhole demolished cnn san francisco florida man
69	183	evernote responds hack attempt resetting user password
40	218	florida man devoured sinkhole demolished cnn cbs florida man devoured
69	183	evernote order password reset hacking
40	218	florida sinkhole continues grow victim recovered
40	218	florida man devoured sinkhole demolished cnn npr florida man devoured sinkhole
922	144	ain brien siobhan finneran will return season
69	183	explains reset evernote hacked reset password detail
1503	163	photo step closer virtual currency bitcoin inch closer mainstream
882	127	plz flw hagel approved defense sharply split senate vote
69	183	hackers breach evernote security
40	218	body sinkhole won recovered house set demolition sad prayers touched
62	183	evernote hacked better check account
104	141	oz great powerful disney john carter flop disney oz great
40	218	poor man recovery team waiting search florida sinkhole missing man
69	183	evernote web based note sharing service hacker user data stolen
40	218	rescuers effort find body man swallowed fla sinkhole fox news philadelphia inqu
48	195	real story oscar winning movie argo ht ben affleck cut role
69	183	hackers breach evernote security
146	183	bbc news evernote security breached hacker tech
605	128	urban clothing jay clothing rocawear mtv news popular clothing brand
40	218	crews raze fla sinkhole man missing abc news crews raze fla
69	183	online note service evernote latest firm hacked
886	180	sherlock bbc spoilers google
69	183	evernote shoot foot click reset password request advice naked security
103	181	year wreck removed
40	218	news rescuers effort find body fla sinkhole
922	144	tom cullen nigel harman dame shirley downton series excellent excellent news downton
40	218	crews raze fla sinkhole man missing seffner fla ap crews planned demolishing
1075	169	honey boo boo sold cooky girl scouts
1575	119	colony collapse disorder colony collapse disorder term unusually large die
40	218	search man swallowed sinkhole called san francisco man
922	211	tom cullen downton abbey role heart beating fast
786	167	sequestration result bad planning obama week late delivering budget congress response
40	218	sinkhole search florida man demolished chicago tribune cbs newssinkhole search flo
40	218	sinkhole search florida man demolished chi
1505	180	long sherlock reach copy
134	124	arsenal amp juve nicklas bendtner twitter drink driving arrest dear booked
40	218	search man swallowed sinkhole called
69	183	evernote hacking spark security overhaul password reset metro news
884	161	giant nasa spider robot print lunar base microwave
40	218	news crews demolish fla sinkhole house search called swallowed man seffner fla crews
89	183	evernote service vulnerable attempted attack copyright jay visit original article
891	126	nowplaying havana brown ft pitbull night listen
40	218	crews demolition fla sinkhole seffner fla ap crews heavy equipment sunday
40	218	crews demolition fla sinkhole seffner fla ap crews heavy equipment sunday
889	128	clothes online depressed poor
40	218	crews fla big sinkhole search fails find man washington post
922	211	heartthrob alert downton abbey tom cullen latest cast member
31	146	maine quietly mounting massive support historic gmo labeling bill
146	183	bbc news evernote security breached hacker
48	195	best film brilliant oscar winning argo tomorrow
69	183	hackers breach evernote security
40	218	recovery effort florida man presumed dead sinkhole
1107	217	pope blessing cardinal gather elect vatican city reuters roman catholic
69	183	evernote issue security notice service wide password reset evernote blog
1126	214	education week teachers unprepared common core
110	121	wld motivate mooc interested experiencing learning environment highered
69	183	evernote password reset data protection fail computerworld blog computerworld blog ev cloud fail
40	218	crews demolish florida man presumed dead swallowed sinkhole
40	218	gadget news crews demolition fla sinkhole seffner fla ap crews heavy
172	124	bendtner arrested dui
55	157	gossip celebrity pregnant kim kardashian rebels white photos babble teamfollowback
889	128	xo wanna buy wardrobe haha buying clothes room
922	144	dame kiri star downton abbey episode bbc news
680	167	wanna sequestration gop calling pres obama sequestration
922	144	dame kiri star downton episode opera star dame kiri te kanawa star episode itv hit ser
40	218	florida demolished sinkhole swallowed sleeping man seffner florida reuters wrecking crew
48	195	rated argo imdb
890	123	nasa solar cycle update solar maximum double peaked mar
1107	217	cardinal meet pick pope candidate york cardinal timothy dolan mm
889	128	best buy mens replica clothes wholesale
1291	155	assad attack naive approach syria syrian president bashar
69	183	evernote shoot foot click reset password request advice
40	218	demolition start florida sinkhole site unable rescue man devoured giant sinkhole worker start
886	180	bbc sherlock awesome wait catch season
76	205	clashes egypt port police move prisoner
241	206	photo project kindle leftover yarn
69	183	evernote hacker gain access passwords usernames email addresses
55	157	news kim kardashian bizarre outfit photos
40	218	florida sinkhole recovery effort year man presumed dead
1426	121	moocs myths dropout rates certification
106	135	jesus cinder block tossing tap dancing robot christ
48	195	experience watching year oscar winner argo ck
904	115	man watching video rogers eyed man dude wanted help better youth
106	135	big dog boston dynamics teach bigdog robot hurl cinder block
40	218	florida demolished sinkhole swallowed sleeping man
886	180	damn sherlock good
1503	163	bitcoin decentralized digital currency reached historical high bubble move bubble
786	145	sequester will affect
69	183	evernote resets passwords attackers steal login data pc magazine economic tech news
76	205	egypt sources hurt clash egypt prison riot death sentence
893	216	drug promise type diabetes diabetes
69	183	tech evernote resets passwords attackers steal login data pc magazine
69	183	evernote online note service hacked force user reset password
786	145	video national parks face sequestration burden
69	183	evernote reset password hacker access user data
69	183	evernote cracked password wind starting real issue cloud service
69	183	evernote hacked time change passwords
40	218	travel tourism man swallowed alive bedroom florida sinkhole
1307	202	boko haram leader shekau denies ceasefire dialogue fg message read
40	218	florida sinkhole swallowed man partially razed
69	183	security notice service wide password reset evernote
55	157	photos kim kardashian headed fashion week
69	183	hackers breach evernote security hacker evernote safe day
55	157	kim kardashian vision white mom continues fun maternity fashion step
891	126	love song great pitbull song
1079	165	hour left tribe gather acpt excited tweet crossword
1075	136	star girl gillian flynn
40	218	fla house sinkhole demolished seffner fla ap crews sunday razed half
40	218	gallery florida demolished man swallowed sinkhole
1359	117	peeps happiness marshmallow lover holocaust justsayin
69	183	evernote hacked click reset password request email directly service
40	218	florida sinkhole demolished crews partially demolished man presumed dead
76	205	clashes egypt port police move prisoner
1577	128	love ordering clothes online
886	180	sherlock
886	180	don sherlock bbc movie dash
886	180	sherlock
680	221	doctors report cure hiv child
69	183	email evernote yesterday security breach
31	146	food label ge genetically modified food momentum label ge food
680	221	ap usa scientists baby born hiv cured washington ap baby born aids virus
680	221	researchers toddler cured hiv
1214	209	job track asteroid solar system kinda dropped ball chelyabinsk incident didn
680	221	doctor cure child born hiv
680	221	baby born aids virus cured scientist
886	180	read imagine robert downey jr law voice sherlock holmes watson
680	221	scientists baby born hiv cured
680	221	researchers toddler cured hiv year mississippi girl child functionally cured
40	218	florida man swallowed sinkhole signs life detected scary
680	221	researchers toddler cured hiv year mississippi girl child functionally cured
893	221	doctor cure child born hiv guardian guardianus doctor cure child born hivthe guardia
680	221	researchers toddler cured hiv year mississippi girl child functionally cured
680	221	nih report toddler functionally cured hiv infection
680	221	researchers toddler cured hiv
680	221	researchers toddler cured hiv year mississippi girl child functionally cured
680	221	researchers toddler cured hiv year mississippi girl child functionally cured
680	221	researchers toddler cured hiv cnn
680	221	researchers toddler cured hiv year mississippi girl child
680	221	scientists baby born hiv cured
76	205	egypt army port clash port egypt ap military intervened clash
680	221	researchers toddler cured hiv cnn davenport iowa
680	221	early aggressive treatment scientists report cure hiv child aids cure
680	221	child cured hiv pbs blog pbs blog child cured blog
680	221	doctors infant cured hiv umc
680	221	early treatment cure baby born hiv interesting doctor decision treatment
680	221	holy shit cured kid hiv
680	221	doctor cure child born hiv
680	221	invaluable africa doctor cure child born hiv
680	221	researchers toddler cured hiv
69	183	evernote reset password user stolen security breach
680	221	hiv infected baby cured early treatment news best celebrity body
680	221	time baby cured doctors
893	221	bbc news hiv baby cured early drug treatment
680	221	science rule mt scientists report cure hiv child
680	221	doctor medical history effectively curing child born hiv incredible breakthrough
680	221	researchers toddler cured hiv
69	183	evernote hacked reset password user android android
893	221	hiv baby cured treatment researcher cured baby born hiv vir news
680	221	time baby cured doctors study procedure work
680	221	hiv baby cure scientist girl early treatment standard drug therapy
680	221	time baby cured doctors
680	221	hiv baby cured treatment
893	221	news baby hiv cured early treatment follow warren today
680	221	baby hiv infection cured early treatment reuters
680	221	hiv baby cured treatment
680	221	hiv infected infant reportedly cured university mississippi coming
680	221	baby cured hiv
680	221	doctor cure child born hiv
893	221	hiv baby cured treatment researcher cured baby born hiv virus tha
680	221	amazing baby cured hiv
893	221	baby hiv infection cured early treatment reuters top news
680	221	scientists child born hiv cured offer clue fighting aids hiv aids
40	218	florida sinkhole swallowed man partially razed reuters
680	221	baby born hiv cured herald sun baby born hiv
680	221	time baby cured doctors
55	157	pregnant kim kardashian wears skin tight gown oscars party photos
680	221	luis style time baby cured doctors doctors announced sunday ba
893	221	doctor cure child born hiv submitted worldnews link comment
680	221	infant cured hiv umc mississippi state place god hand
1359	117	skip tonight marshmallow peeps winning diorama annual contest contest
889	128	tons awesome men clothing accessory ebay store
680	221	report baby cured hiv
680	221	baby born hiv cured scientist boston globe
680	221	latest headline hiv baby cured treatment
893	221	bbc hiv baby cured treatment researcher cured baby born hiv vir
680	221	hiv baby cured treatment researcher cured baby born hiv virus aids
893	221	hiv baby cured treatment researcher cured baby born hiv bbc
680	221	gizmodo tech report baby cured hiv updates gt
893	221	hiv baby cured treatment researcher cured baby born hiv virus tha
680	221	doctors mississippi cured baby hiv
893	221	hiv baby cured treatment researcher cured baby born hiv virus tha
893	221	hiv baby cured treatment researcher cured baby born hiv virus tha
893	221	hiv baby cured treatment researcher cured baby born hiv virus tha
893	221	hiv baby cured treatment researcher cured baby born hiv virus tha
680	221	doctors baby cured hiv cheatsheet
680	221	baby born hiv cured
680	221	incredible definitely hope baby born hiv positive cured scientist
3	121	social moocs computing education google tech talk february info
680	221	scientists baby born hiv cured
680	221	child cured hiv huge news
893	221	good news bbc news hiv baby cured early drug treatment
680	221	scientists baby born hiv cured scientists baby born hiv cured
680	221	time baby cured doctors curehiv news america
680	221	time baby cured doctors
680	221	baby hiv infection cured early treatment
680	221	baby hiv cured early treatment mississippi baby born aids virus appears cu
680	221	ticker girl born hiv appears cured scientist
893	221	baby cured hiv news scared click link good true tweeted read
922	144	maid brien leaving downton abbey actors joining
886	180	bbc sherlock doctor
886	180	books spring reading classic sherlock holmes
680	221	baby born hiv cured awesome
680	221	hiv baby cured treatment
893	221	child born hiv cured doctor guardian guardianchild born hiv cured doctorsthe
884	161	giant nasa spider robot print lunar base
893	221	baby born hiv cured worth screening antibody older
893	221	baby free hiv doctor talking cure vitals
69	183	evernote hack exposes user data forces extensive password resets news
1075	169	girl scouts selling cooky didn cash debit needless eating thin
680	221	hiv medical baby called cured mississippi
886	180	sherlock bbc meets metal
680	221	cured baby hiv
922	144	downton abbey
904	215	bring snow blower gassed minnesota month boating
69	183	wondering evernote apps evernote email amp encrypted password hacked
680	221	cure aids baby born hiv cured
680	221	baby hiv infection cured early treatment
680	221	scientists child functionally cured hiv infection early treatment
680	221	scientists baby born hiv cured
680	221	baby hiv infection cured early treatment chicago reuters baby girl mississippi
893	221	child born hiv cured doctor guardian guardianchild born hiv cured doctorsthe
680	221	researchers toddler cured hiv fascinating
680	221	doctors baby infected hiv cured time mississippi
680	221	girl cured hiv early drug treatment baby born hiv appears cured ver
69	183	news update evernote reset password security breach
680	221	cured baby hiv
680	221	today child functionally cured hiv kind stuff studying
680	221	doctors report cure hiv child
680	221	church member prolly sad scientists report cure hiv child
680	221	scientists baby born hiv cured
680	221	scientists baby born hiv cured
680	221	baby cured aid going
680	221	news baby born hiv cured baby girl born hiv cured early
680	221	scientists baby born aids virus cured washington baby born aids virus appear
680	221	today girl born hiv cured time
680	221	lot will lose money sequester news baby cured hiv cure happened
680	221	researchers toddler cured hiv
680	221	news baby cured hiv mississippi totally awed
680	221	infant cured hiv amazing news coming annual conference
680	221	hiv baby cured
680	221	year mississippi doctor functionally cured hiv
680	221	scientists baby born hiv cured baby born aids virus appears cured
889	128	clothes online reminds broke buy
680	221	baby hiv cured aids virus completely cured child body three years cure
680	221	scientists report case baby cured hiv huge
680	221	holy cow baby fully cured hiv amazing
893	221	medical baby hiv called cured york times nbcnews comin medical baby
680	221	og nr baby born hiv cured
680	221	scientists baby born aids virus cured washington baby born virus aids appears
680	221	cured baby born hiv sign hope innocent
680	221	baby born hiv cured scientists hope
680	221	hiv breakthrough kid baby born hiv cured aids
680	221	year infected hiv fundamentally cured
680	221	second time scientifically cured hiv time cure
680	221	newborn baby cured hiv
680	221	year infected hiv fundamentally cured scanning electron hiv budding green
40	218	florida sinkhole swallowed man partially razed seffner florida reuters wrecking crew
1214	209	amazing video russian meteor explosion february
680	221	baby born hiv appears cured scientist announced sunday
680	221	kind big deal infant hiv cured
680	221	article doctor cure child born hiv doctor cure child born hiv
680	221	infant cured hiv
680	221	mississippi stand blair children hospital announces year cured hiv
680	221	mississippi infant functionally cured hiv
106	135	boston dynamics bigdog lift toss video win robot vote
904	158	asap bread fuck bring hushpuppy
680	221	medical baby called cured
1380	113	watch harold kumar escape guantanamo bay
69	183	evernote reset password hack online note archiving service evernote required mi
680	221	shout doctor scientist cured year girl hiv thankyou
680	221	true scientists child functionally cured hiv infection time
680	221	year infected hiv functionally cured
680	221	mississippi baby born hiv cured
69	183	change evernote password online note archiving service evernote required user
680	221	hiv cured baby time scientist
886	180	foto sama bbc sherlock raven
680	221	scientists baby born hiv cured
680	221	baby beat hiv aaa
680	221	mississippi baby born hiv cured
680	221	amazing hiv cured child time
680	221	hiv positive infant reportedly cured time history
680	221	doctor mississippi time infant cured hiv infection
904	215	snow wednesday bought big snow blower year ago enjoy time
886	180	sherlock hidden message coming sherlock bbc
680	221	year infected hiv functionally cured year infected hiv functionally cured
680	221	child hiv cured today
893	221	bbc news science amp environment hiv baby cured treatment bbc news science amp
680	221	good news story weekend baby hiv cured
1126	214	common core attack progressive education
40	218	sad story hometown crews raze sinkhole swallowed man save family rjj
680	221	latest arizona news doctors report cure hiv child doctors report cure hiv child
1380	113	harold kumar escape guantanamo bay
69	183	evernote hackers stole user data
680	221	scientists report cure hiv child game changer
680	221	researchers toddler cured hiv amazing
680	221	socialmedia toddler functionally cured hiv doctors time child bo
680	221	hiv cure toddler cured hiv
680	221	hiv cure toddler cured hiv
680	221	science lifetime baby born hiv cured scientists
680	221	report baby cured hiv
680	221	baby born hiv cured celebrity star baby born hiv cured washington
680	221	year child reportedly cured hiv today awesome
680	221	baby hiv infection cured early treatment
10	147	wrong victoria secret commercial
680	221	toddler functionally cured hiv doctors
886	180	sherlock aunque sea son min buen en bbc
40	218	sinkhole demolished unable rescue man devoured giant sinkhole worker will start
886	180	photo tv meme tv sherlock walk sherlock holmes battlefield
680	221	doctors cure hiv infant child born virus mississippi free infection
680	221	toddler functionally cured hiv doctors time child born hiv
680	221	hiv girl born hiv cured couple year replicate case
680	221	toddler functionally cured hiv doctors time child born hiv functio
680	221	breaking news denver baby hiv cured scientist atlanta
680	221	celebrity gossip baby born hiv cured scientist call game changer
680	221	today gold star excellence dr hannah gay mississippi al functionally curing hiv infected newborn
1126	214	common core attack progressive education
680	221	baby cured hiv time researchers wall street journal wall street cured
680	221	person cured hiv today crazy awesome news huge hold true
680	221	baby hiv infection cured early treatment
77	158	ate sandwich onion ring hush puppy turned street lmao
680	221	baby born hiv cured today glory science
680	221	ch people going crazy hearing baby cured hiv basketball fan
893	221	baby hiv infection cured early treatment yahoo share friends health
1578	192	pertussis running rampant oregon ve watching progression forever
680	221	doctor cure child born hiv
680	221	baby born hiv cured scientists
680	221	hiv infected baby cured early treatment ground breaking case
680	221	actual reality fight aids thing mind hearing infant cured hiv rent
680	221	shared doctors mississippi baby functionally cured hiv
680	221	toddler functionally cured hiv doctors time child born hiv functio
680	221	researchers toddler cured hiv
680	221	baby born hiv aids cured researchers hopeful success mississippi baby born aids
680	221	child born hiv cured doctor awesome news
680	221	scientist cured child hiv
680	221	researchers toddler cured hiv
680	221	medical baby hiv functionally cured venturebeat
680	221	baby cured hiv time
10	147	feel parent victoria secret commercial
680	221	fantastic breaking news baby hiv infection cured early treatment
922	144	face downton abbey sydney morning herald face downton morning
110	121	gt comparison mooc completion rate
104	141	spoiler alert mila kunis wicked witch west green
680	221	scientists baby born hiv cured
104	141	fact oz movie mila kunis worth
680	221	baby born hiv cured
69	183	hackers breach evernote security
680	221	time baby cured doctors
680	221	amazing documented case child cured hiv
680	221	baby cured hiv usa cure hiv curehiv
680	221	scientists baby born hiv cured
893	221	child born hiv functionally cured los angeles times health news
680	221	hiv baby cured treatment
680	221	scientists baby born hiv cured baby born aids virus appears cured
106	135	dynamic robot manipulation
1107	217	cardinals meet pope election race replace pope benedict xvi monday fou
680	221	hiv baby cured researchers claim ve cured baby born hiv starting treatment
69	183	evernote password hacked
680	221	hiv baby cured treatment
69	183	evernote issue site wide password reset hacker access user detail
680	221	hiv baby cured early drug treatment baby girl born hiv appears cured af
680	221	light tunnel hiv baby cured
680	221	read scientist cure hiv year newborn diagnosed birth unbelievable
680	221	hiv baby cured early drug treatment
69	183	update evernote password
40	218	workers finish destroying florida sinkhole devoured man
680	221	newborn baby cured hiv doctors medical lgbt
680	221	hiv cured child time
69	183	half day reviewing resetting password evernote security breach
680	221	hiv infected infant cured early aids drugs
680	221	baby born hiv free virus scientist
89	183	evernote join hackable club
680	221	mississippi baby born aids virus appears cured early treatment
680	221	baby cured hiv drug treatment medium
680	221	scientists child functionally cured hiv infection early treatment
680	221	documented case child cured hiv announced yesterday
893	221	baby hiv infection cured early treatment yahoo news
884	161	giant nasa spider robot print lunar base awesome idea printing
893	221	malware child born hiv functionally cured los angeles times san francisco born wit
106	135	military robotics boston dynamics big dog youtube watch robots slip recover ice
680	221	child born hiv cured doctor child born hiv cured doctor
680	221	toddler functionally cured hiv doctors
48	125	argo amazing definitely deserved oscar received ben affleck best director nom
680	221	medical baby called cured
680	221	hear baby girl mississippi born hiv cured early treatment
69	183	evernote reset password user stolen security breach
40	218	sinkhole destroyed giant crane plunged florida massive sinkhole
40	218	cnn sinkhole body recovery worker began demolishing massive sinkhole pre
890	123	rain sun rain flare radiation magnitude larger earth adele
48	195	argo oscar winner
104	141	oz great powerful movie review wizard wonderful wizard oz
893	221	bbc news hiv baby cured early drug treatment
40	218	sinkhole body recovery worker began demolishing massive sinkhole presuma
40	218	sinkhole body recovery worker began demolishing massive sinkhole presuma
680	221	doctor cure hiv infant doctor charge patient dr gay couldn stuff
893	221	bbc news hiv baby cured early drug treatment
1107	217	cardinal peter turkson facts potential african pope
893	221	doctor cure child born hiv guardian guardianus doctor cure child born hivthe guardia
680	221	cured baby hiv
680	221	hiv infected infant cured early aids drugs
680	221	scientist baby born hiv cured
680	221	hiv baby cured treatment researcher cured baby born hiv nature green
69	183	evernote hacked change password
1107	217	cardinals meet pope election race replace pope benedict xvi monday fou
1579	192	whoopingcough news suffolk shock rise whooping cough case number case pathogenposse
893	221	bbc news hiv baby cured early drug treatment
69	183	evernote password reset data protection fail computerworld blog computerworld blog
69	183	evernote hacked passwords reset
889	128	online shopping easter outfit
76	205	dtn usa fresh clash erupt egypt volatile port
76	205	dead police fight protester egypt port cairo reuters member egypt securit
76	205	fresh clash erupt egypt volatile port
69	183	science evernote hacked password reset
1494	134	nw middle saison
258	166	blackjack live table games coming maryland april mills maryland live casino will debut
69	183	china hackers breach evernote security
40	218	plz flw sinkhole swallow florida man heart dead brother
893	221	bbc news hiv baby cured early drug treatment
893	221	bbc news hiv baby cured early drug treatment
680	221	medical baby deemed cured
680	221	baby born hiv cured scientists
76	205	news egyptians killed port clash ministry
891	126	christina aguilera pitbull feel moment nowplaying np
69	183	evernote online storage breached hacker based online storage firm evernote implemented service
886	180	sherlock
680	221	hiv baby cured treatment
214	220	breakingnews bomb blast pranab mukherjee hotel homemade bomb
884	161	printed urbee hybrid car light strong nearing production
680	221	year girl born hiv cured
680	221	hiv baby cured doctors explain finding
922	211	downton abbey going feature tom cullen nigel harman lovely
680	221	close cure ve breakthrough hailed atlanta scientist cure baby hiv
922	144	julian fellowes discusses season comings goings downton abbey
680	221	hiv baby cured
680	221	baby cured hiv time researchers baby born aids virus cured af
680	221	baby born hiv cured scientists treated newborn child strong drugs hours birth
680	221	researchers toddler cured hiv
680	221	doctors cure baby born hiv time medical news today
1107	217	catholic cardinal rome search pope benedict messy legacy
680	221	toddler functionally cured hiv infection nih supported investigators report
680	221	big news doctor cure child born hiv
69	183	evernote security breach service wide password reset user base
904	215	snow blower injury common kansas city mo snow removal technique
69	183	evernote hacked password reset
680	221	doctors cure child born hiv
893	221	bbc health hiv baby cured treatment
76	205	fresh clash erupt egypt volatile port army killed people wer
680	221	baby cured hiv time researchers
680	221	hiv baby cured treatment
1107	217	amp catholic cardinals begun meeting rome elect pope elect black pope
893	221	blog post hiv drug sold joint venture help cure baby aids
680	221	scientists baby born hiv cured case offer promising clue effort
680	221	medical baby deemed cured scichat
680	221	hiv baby cured bright future
680	221	reporting baby cured hiv early aggressive
1359	206	yarn bombed branch ottawa public library fun
889	128	buy greatest bow type tracks check clothing brand
922	144	downton abbey cast season
76	205	fresh clash erupt egypt port people killed injured
76	205	fresh clash erupt egypt port people killed injured
76	205	fresh clash erupt egypt port
680	221	hiv cured small kid
69	183	evernote hacked security overhaul
680	221	cool born hiv cured good job dr gay kisses philippines
76	205	fresh clash erupt egypt port people killed injured
69	183	evernote hack user forced reset password digital trends
11	142	nyt kerry criticizes iran russia shipping arms syria making case increased support syria
1297	217	argentina papal candidate buenos aires argentina ap son italian imm
680	221	baby hiv cured mississippi child born hiv cured mississippi
1297	217	argentina papal candidate buenos aires argentina ap son italian imm
11	142	kerry criticizes iran russia shipping arms syria york times syria
922	144	dame kiri face downton abbey
680	221	year baby mississippi cured hiv sad racist
69	183	online note service evernote latest firm hacked
680	221	hiv cured born amazing
680	221	tech fans breakthrough hiv infected babies baby born virus cured
893	221	bbc news hiv baby cured early drug treatment
69	183	evernote hacked respond
896	126	pitbull disses lil wayne dade county track audio video
76	205	death toll rise egypt port clash slavetrademedia
11	142	kerry criticizes iran russia shipping arms syria making case increased support syria op
680	221	news police officer lose chance strike future doctor cure baby hiv
14	212	pregnant kate middleton prince william prince harry pics swiss alps ski trip
680	221	mississippi baby born hiv functionally cured doctors abc news abc baby born wit
680	221	analysis cure hiv close curing hiv
680	221	scientists baby born hiv cured
680	221	women cure year hiv best thing heard
680	221	baby cured hiv
55	157	kim kardashian kanye west wear outfit paris
922	144	leaving downton abbey coming aboard fox news
680	221	baby born hiv cured hot damn
680	221	year mississippi cured hiv lead stories jamaica monday march
680	221	lil mississippi baby born hiv child functionally cured doctors
680	221	holy shit documented case curing hiv announced yesterday wtf child cured hiv
680	221	hiv baby cured treatment
10	147	sell bra victoria secret commercial feel bad
36	193	set fire protest mafia control bulgaria died sun hero protest movement jan
40	218	crews demolish sinkhole house monday demolition crew started tear
40	218	sinkhole worker began demolishing massive sinkhole claimed man life
680	221	baby cured hiv time researchers
1470	117	blessing peeps cute peep
680	221	hiv cure breakthrough mississippi baby free virus will uknews
680	221	toddler functionally cured hiv aids drug maker receives mention
680	221	opinion doctors cure hiv infected baby catholic cardinal prep pick pope roundup
893	221	permanent cure hiv
55	157	pregnant amp glamorous kim kardashian style
680	221	scientist baby born hiv cured
680	221	baby cured
680	221	child cured hiv mississippi
680	221	researchers describe functional hiv cure infant news slashdot
680	221	researchers describe functional hiv cure infant
889	128	mummy permission buy clothes online
104	158	free hushpuppies purchase march coupon
680	221	mississippi will map forever people cure hiv tested time cured
680	221	researchers toddler cured hiv
680	221	photo scientists report cure hiv child game changer
886	180	sherlock losing
680	221	baby cured hiv
14	212	kate middleton wear max mara attend wedding switzerland
680	221	doctors baby cured hiv time
680	221	incredibly hopeful exciting scientists baby born aids virus appears cured
893	221	child born hiv functionally cured disease isn science wonderful
40	218	house removed fla sinkhole man vanished sinkhole swallowed man
69	183	alert weekend evernote broken time reset evernote password
680	221	doctor cure child born hiv
886	180	sherlock holmes
69	183	evernote hacked force user reset password wired science
680	221	cure hiv baby born hiv free year
680	221	doctor cure child born hiv mississippi doctor medical history functional cure
680	221	scientists describe case child born hiv cured human
680	221	medical baby deemed cured
680	221	waking hear baby hiv infection cured early treatment hope cure
1086	197	mad men hour season premier yesssss
680	221	average guy london doctor cure infant born hiv
680	221	doctor cure child born hiv
1572	149	excited share work check story
889	128	buying clothes online wrong size
40	218	plz flw florida man devoured sinkhole demolished seffner florida cnn
69	183	user accessed hacking attempt evernote
886	180	borrow hashtag idea sherlock holmes elementary
893	216	sugar global explosion type diabetes study find
680	221	baby cured hiv time researchers
110	121	sxswedu cage match massive open online course debate sxswedu cage match mass events austin
241	206	international yarn bombing day june
786	167	sequestration congress cant agreement bet pay cut agreement
14	212	kate middleton flaunts pregnant baby bump walking snow swiss alps
680	221	scientists baby born hiv cured
69	183	evernote online storage breached hacker based online storage firm evernote
1126	214	principal ve common core
40	218	breaking news house removed fla sinkhole man vanished
680	221	hiv cure breakthrough guardian
680	221	baby hiv cured
680	221	monday kickstarter madonna join anderson cooper glaad awards baby born hiv cured
680	221	doctors cured infant born hiv time
680	221	scientists baby born hiv cured sanantonio
1359	117	public library peeps extravaganza create diorama scene favorite book movie
14	212	kate middleton wears repeat swiss alps wedding kate middleton budding royal baby bump
69	183	evernote forcing reset password happy
680	221	baby cure aids time
48	195	best picture oscar winner argo corner senior cinema thursday pm
680	221	hiv baby cured treatment amazing news
680	221	scientists baby born hiv cured scientists major aids meeting mis sanantonio
680	221	lee baby cured usa standard hiv treatment
886	180	bet sherlock holmes rocked shit elementary school
680	221	video medical breakthrough cure hiv infected babies baby girl cured wshh
680	221	toddler functionally cured hiv doctors
893	221	baby born hiv cured cure adult follow
69	183	evernote password hacked
680	221	medical baby deemed cured
922	211	downton abbey meet lady mary beau season
922	211	contact music nigel harman cast joining downton abbey season
69	183	computerworld evernote hit hacking attack user reset password
893	221	woman hiv massive dose baby born prevent
922	144	set join downton abbey news
680	221	scientists baby born hiv cured
680	221	doctor cure child born hiv implication live amp
893	221	cure cure hiv demand better testing guardian blog guardian blog cure cure hiv dem
680	221	hiv cure kid baby seriously best ve heard long time
1505	194	finally ill peak cherry blossom tidal basin
680	221	baby hiv infection cured early treatment
680	221	cured baby hiv hmmmm
893	221	cured baby remains solitary genuine solution hiv long independent health news
680	221	researchers describe st functional cure hiv baby
110	121	divide key concern potential edtech moocs mena cc
680	221	baby cure aids time
40	218	brother question rescue effort sinkhole death
40	218	brother question rescue effort sinkhole death
680	221	baby cure aids time
69	183	evernote password hacked
69	183	risk evernote hack
76	205	egypt security headquarters fire security headquarters egyptian city port fire
69	183	compromised evernote hack
680	221	news researchers describe st functional cure hiv baby study needed health
893	221	read report child cured hiv wait hiv medicine
62	183	evernote push security awareness raising software update hack attack
69	183	risk evernote hack
680	221	baby cured hiv enews
69	183	risk evernote hack tens online note ace
69	183	risk evernote hack tens online note taker worrying
69	183	risk evernote hack tens online note taker worrying
680	221	vemma hiv baby cured case patient treatment telegraph
680	221	well year toddler cured hiv
680	221	mississippi doctor functionally cure toddler hiv ars technica
893	221	cured baby remains solitary reminder genuine solution hiv long hiv stigma
893	221	joint united nations hiv aids unaids today welcomed news baby treated
69	183	compromised evernote hack tens online note taker worrying abou
69	183	compromised evernote hack tens online note taker worrying abou
69	183	evernote password hacked kevin
69	183	compromised evernote hack tens online note taker worrying abou
680	221	holy shit baby hiv cured hat
680	221	excited child cured hiv virus undetectable instrument
680	221	baby girl cured
680	221	researchers describe st functional cure hiv baby study needed
41	111	india indian farmers spending fortune borewells experts sug suryaray
680	221	video medical breakthrough cure hiv infected babies baby girl cured
889	128	store online usd les clothing store located clinton st btwn stanton amp
680	221	researchers toddler cured hiv
680	221	baby born hiv cured aggressive drug treatment hope cure
680	221	mississippi child born hiv appears cured
889	128	buy award winning type tracks check clothing brand
680	221	case child cured hiv trace main italian news broadcast
134	124	bendtner banned danish fa drink driving danish football association banned striker nicklas bendtner national tea
893	221	baby hiv infection cured early treatment yahoo health
155	160	nyc social media education afghanistan educational software socialmedia
680	221	baby mississippi cured hiv today watch god work god
69	183	hackers breach evernote security
680	221	year cured hiv doctor happen
890	123	cme summary coronal mass ejection occurred hour update visit
680	221	baby cured hiv faith hope future
39	167	obama told american ppl republican initiated sequestration lie wasn obama liar
82	225	barbara walters view week mend
1075	169	honey boo boo girl scouts cookie sale honey boo boo mama june word
680	221	photo science hiv cured child time functional
680	221	early treatment cured baby hiv infection news
680	221	baby cured hiv baltimore sun
680	221	crazy jus curing hiv infected baby wen africa cure hiv
922	144	shirley maclaine set return downton abbey adds characters indie rock music
1075	169	check honey boo boo girl scouts cookie sale honey boo boo mama june word aft
890	123	nasa fiery looping rain sun
680	221	news baby functionally cured hiv presented today
680	221	scientists baby born hiv cured
134	124	danish football federation suspended nicklas bendtner international football mths arrested drink driving
605	128	urban clothing fila footwear brand origin streetwear popular clothing brand
680	221	born baby cured hiv watch amp share
680	221	hiv positive baby mississippi cured virus video
680	221	explain story baby born hiv cured
1075	169	honey boo boo girl scouts cookie sale honey boo boo mama june word
680	221	hiv infection infant baby cured early treatment baby girl mississippi
40	218	brother family sinkhole victim going hell demolition crew pick house si
893	221	hiv hope baby cured early mega dose treatment
680	221	case missed news weekend early treatment cured baby hiv infection
82	225	barbara walters return view
110	121	sxswedu great article moocs laura
893	221	news elizabeth aids foundation celebrates dramatic advance hiv treatment
680	221	medical baby deemed cured
893	221	read baby wasn cured hiv
922	144	downton abbey adds cast including opera kiri te kanawa downton abbey hollywood
82	225	watch barbara walters returns fine healthy walters recount illness tscent
82	225	watch barbara walters returns fine healthy walters recount illness
680	221	functional hiv cure early art infected infant
680	221	girl born hiv mississippi half year ago appears cured scientist
69	183	compromised evernote hack
680	221	documented case child cured hiv researchers today described
680	221	cnn researcher functionally cured toddler hiv cnn landmark moment
889	128	urban clothing online urban clothing store buy streetwear online seo traffic wholesale skatewear online
1308	154	natural antioxidant prevent cognitive decline chemical resveratrol
40	218	search called man swallowed sinkhole
82	225	walters view week mend
680	221	key moment aids battle researcher functionally cured toddler hiv cnn
69	183	evernote user change password
886	180	overheard draw sherlock bbc step draw black step cigarette
680	221	child born hiv cured talk mayo doctor pm listen live
11	142	kerry criticizes iran russia shipping arms syria
680	221	cnn ticker baby cured aids doctor treated baby excited realized citing quote nerd
680	221	scientists baby born hiv free virus video march colon cancer awareness month
680	221	ion progress gt scientist baby born hiv cured americas al jazeera english
680	221	hiv baby cured today awesome
69	183	psa evernote security breach protect asap android community android
69	183	evernote hacked change password hacked
893	221	baby hiv infection cured early treatment yahoo share friends health heal
69	183	evernote resets user passwords security breach
82	225	barbara walters returns view recovering chickenpox head injury barbara
0	130	good lawyer law smart lawyer judge lunch
893	221	baby cure hiv raise hope question reuters cbs newsus baby cure hiv raise hope
680	221	positive note precious baby girl cured hiv today jesus good
680	221	fab news cure hiv hoping work case chance life
680	221	irresponsible medical baby deemed cured cured bc undetectable viral load yr hmm
680	221	pretty big day today controversy retirement california letting woman die baby cured hiv
886	180	bet sherlock holmes rocked shit elementary school
680	221	aids baby cured baby born aids virus appears cured scientist sunda
104	141	reel movies oz great powerful james franco finding oz oz great powerful fou
82	225	dtn pakistan watch barbara walters returns fine healthy forget mention
922	211	downton abbey season baby tom cullen cast mary love interest downton abb
1107	217	cardinals pre conclave process choosing pope cardinal meet vatican
680	221	medical baby deemed cured news yesterday happy hope cure
680	221	miracle baby born hiv cured years historic case
680	221	baby cured hiv
680	221	american voices baby cured hiv comedy
896	126	music pitbull dade county lil wayne diss
680	221	blog post scientists baby born hiv cured
155	160	hootsuite rocks mt will big business higher education global adoption affect social medium
3	121	moocs will won mooc
922	211	downton abbey season baby tom cullen cast mary love interest
891	126	pitbull hotel room service amp shut weapon tune day pitbull christ
893	221	science cured child hiv science changed shoe red brown
886	180	ii sherlocked ladies shirt sherlock holmes mystery book movie tshirt clothing
680	221	hiv baby cured treatment exciting progress
106	135	terrifying prancing big dog robot level watch
69	183	evernote hacked change password
680	221	talk premature claim mt newborn cured hiv aids
680	221	hiv cured baby cnn talk dr hannah gay helped functionally cure baby hiv
680	221	miracle baby born hiv cured years historic case
14	212	kate swiss wedding weekend
680	221	hope true baby cured hiv mississippi
1086	197	items mad men game thrones promos fave returns season mad men
680	221	exciting story lifetime scientists report cure hiv child
36	220	video protests continue bangladesh protests rally continue bangladesh war crime trib
680	221	god news baby cured hiv story interesting
680	221	year cured hiv doctors ve cured year mississippi hiv cnn elizabeth
680	221	hearing baby cured hiv
680	221	baby cured hiv
893	216	diabetes caused high sugar intake daily best diabetes
680	221	ap news scientists baby born hiv cured
69	183	evernote responds hack attempt resetting user passwords
69	183	evernote responds hack attempt resetting user passwords
69	183	evernote responds hack attempt resetting user passwords
680	221	doctor cure child born hiv
69	183	evernote hacked users reset passwords caution
786	145	localities fear national park cut national parks preparing reduce hour service
786	145	localities fear national park cut national parks preparing reduce hour service
786	145	localities fear national park cut national parks preparing reduce hour service
680	221	mississippi baby born hiv cured scientists game changer breaking news youtube
786	145	localities fear national park cut national parks preparing reduce hour service
104	141	wanna oz movie simply mila kunis
886	180	sherlock en neox
896	126	music pitbull dade county lil wayne diss
76	205	bbc news egypt clash port security headquarters fire
40	218	demolition resume florida sinkhole devoured man sinkhole
680	221	mvcoup baby cured hiv treatment ganjabo
889	128	urban clothing konvict clothing akon lady gaga vmas popular clothing brand
605	128	urban clothing fila footwear brand origin streetwear popular clothing brand
82	225	great barbara walters view didn chicken pox amp concussion needed rest overdue
1086	197	mad men season teaser affair year coming watch
680	221	baby born hiv cured amazing hopefully full cure
680	221	baby born aids year appears cured
69	183	evernote hacked requires reset read forcefully change evernote account password
69	183	evernote responds hack attempt resetting user passwords
1086	197	news update mad men season teaser affair year coming watch advertise tt
106	135	photo topherchris cinder block throwing robot playing catch cinder block successful effort
893	221	things baby cured hiv early treatment answer question raise
1426	121	moocs myths dropout rates certification moocs yam
69	183	evernote latest hacking victim
680	221	doctor cure child born hiv
40	218	ground opening literally swallowing people sinkhole discovered seffner florida
82	225	barbara walters chickenpox concussion punch
1454	128	advantages buying clothes internet
904	215	well round snowfall missed totally round supposedly overnight tonight snow blower gassed ready
14	212	obsessed pregnant princess wear kate head topshop
76	205	egypt security headquarters torched security headquarters egyptian city port set fir
893	221	things baby cured hiv
680	221	baby girl functionally cured hiv freaking awesome
680	221	blessing hear baby cured longer hiv positive
680	221	medical baby deemed cured
1214	209	lol chelyabinsk meteor exploded ground force offense
1308	154	living westminster mar study reveals red wine protects hearing loss cognitive decline
680	221	baby cured hiv treatment
680	221	baby cured hiv treatment
680	221	baby cured hiv treatment
680	221	baby cured hiv treatment
69	183	evernote hacked company reset password evernote told user
680	221	cured hiv po baby
69	183	reset evernote password
40	218	man swallowed sinkhole florida
680	221	cured baby aids
680	221	hiv positive infant completely cured time
1126	214	indiana states acting oppose common core standards
680	221	doctor cure child born hiv
1086	197	video mad men promo teases big affair season hello pete goodbye fat
77	158	chicken amp hush puppy pls
680	221	baby born hiv cured scientists
896	126	pitbull dream true follow
680	221	hiv cure reach baby cured aids three years close cure ve nih
110	121	moocs alliance futurelearn adds british council free higher education roster moocs
680	221	ve waiting researchers baby born hiv cured
680	221	toddler born hiv positive cured aggressive treatment anti viral drug step forward fight killer aids hiv
104	141	bbc lad interview kunis bit demented interview process star
1075	169	honey boo boo girl scouts cookie sale
69	183	social media news evernote responds hack attempt resetting user passwords
893	221	big whoop cured baby hiv cure diabetes ll happy mother fucker whoo
922	144	alert alert tom cullen julian ovenden join downton cast season
104	141	google hot news mila kunis enjoyed playing ugly oz great
10	147	shout victoria secret commercial pandora helping cake
104	141	favorited video mila kunis talk chris stark scott mills
882	127	hagel nomination filibustered republicans democrats
31	146	poll americans gmos
40	218	agree break heart florida sinkhole victim brother thinks rescuers ve harder abc news
55	157	maternity wear kim kardashian blogs pregnancy fashion experience reach
916	201	chasing higgs switzerland sharma missed daughter science news
69	183	evernote hacked asks user reset password
680	221	infant cured hiv incredible
55	157	maternity wear kim kardashian blogs pregnancy fashion
680	221	baby cured hiv
889	128	bought clothes online
680	221	medical landmark baby cured rural mississippi
886	180	reblog bbc sherlock fandom
889	128	clothing going store online public store exclusive serious
680	221	baby born hiv positive mother cured virus completely signs hope showing
680	221	watch mississippi hiv baby cured treatment youtube
680	221	baby born hiv virus cured wonderful work jesus capable thing
680	221	hahaha people hiv punishment god homosexual woman named dr gay cured
680	221	hearing baby cured hiv
600	162	breaking diplomats china agree sanction punish north korea nuclear test
600	162	diplomats china agree sanction punish north korea nuclear test
889	128	making depressed clothes online money buy
600	162	diplomats china agree sanction punish north korea nuclear test
680	221	baby born hiv cured scientists
680	221	shoutout nigga fuck bitch raw bc lil baby news cured hiv
786	167	amp medium doesn sway bet sequestration cutting spending lol
1086	197	good season mad men going wait april
600	162	diplomats china agreed sanction punish north korea nuclear test
104	141	oz movie mila kunis james franco
922	144	glad lovely tom cullen julian ovenden joining downton abbey cast
886	180	sherlock holmes john watson
922	144	downton abbey loses brien add cast member season
886	180	damon sherlock holmes bbc
680	221	baby born hiv cured
40	218	sinkhole victim family going hell second hole nearby
69	183	hackers hit evernote user info accessed people asked reset passwords
891	126	great pick play np nowplaying feel moment pitbull christina aguilera
680	221	today big day treatment aiding hiv treatment cured child science amazing
82	225	barbara walters view barbara walters sidelined week chickenpox
40	218	sinkhole victim brother rescuers
142	163	domain web host accepting payment bitcoin week virtual currency
680	221	hope hiv baby tv
680	221	nyt editorial intriguing case baby cured
889	128	online shopping spring clothes
104	141	mila kunis won turning shades grey dream mila kunis playing anastasia steele
600	162	china reach korea deal north korea celebrated test defence
104	141	mila kunis won turning shades grey dream mila kunis playing anastasia steele
680	221	medical breakthrough american researcher claiming cured baby hiv infection time
680	221	don mt newborn hiv cure aids fight
600	162	china agree north korea sanction nuclear test fox news san francisco china
916	201	india ink chasing higgs boson
916	201	india ink chasing higgs boson story physic elusive particle discovered
893	221	development baby cure
893	221	ultimate news detail medical baby hiv deemed cured york times
104	141	james franco seriously don ill watching oz movie mila
893	221	child hiv cure good news adult hiv aids news san francisco
1342	128	urban clothing order usher fashion diddy perfume popular clothing brand puff daddy
916	201	india ink chasing higgs boson story physic elusive particle discovered
680	221	born cured frm hiv absolutely hope faith wil cure cancer
69	183	evernote hacking left exposed create hackable password video
104	141	mila kunis interview awesome oz
680	221	cure aids nobel prize winning scientist helped discover hiv telegraph
680	221	sky news hiv baby doctors infected girl cured
893	221	things baby cured hiv
40	218	move florida second sinkhole open
82	225	nydailynews baba frank chicken pox claiming view monday
1086	197	wait mad men season video promo invites viewers affair year
106	135	pakistan news robot big dog throw concrete block robot big dog throw concrete block
680	221	american baby cured hiv
884	161	bbc news printed moon building design revealed
893	221	health news hiv cure wasn daily beast daily beastthe hiv cure wasn tdaily
891	126	pitbull song lame song indicate woman material trade
69	183	evernote remove reference fa forum hacked
40	218	florida man swallowed sinkhole
893	221	hiv cure wasn daily beast daily beastthe hiv cure wasn tdaily calling
893	221	hiv cure wasn daily beast daily beastthe hiv cure wasn tdaily calling
1107	217	cardinals meet ahead pope vote catholic cardinal meeting second day tuesday vatican
1107	217	cardinals meet ahead pope vote catholic cardinal meeting second day tuesday vatican
893	216	decrease sitting minute save diabetes decrease sitting
104	141	mila kunis interview stark absolute gold mila madness
904	215	storm ready gas snow blower generator check coffee supply
600	162	russia draft united nations security council sanction north korea third nuclear test
680	221	reckon news going bit hiv cure thing explains happened pretty nicely
680	167	share plenty don agree baker sequestration obama fault
893	221	baby cured hiv older medication philadelphia inquirer blog cured
680	221	guy cure newborn baby cured hiv
155	121	dark side moocs infografia infographic internet education
886	180	klaus tvd sherlock bbc dr hunt grey pride amp prejudice
110	121	moocs alliance futurelearn adds british council free
893	221	baby cured hiv older medication philadelphia inquirer blog
241	206	wonder will knitting yarn bombing
680	221	toddler functionally cured hiv infection nih supported investigator report
680	221	doctors find functional cure infant hiv advancement fight hiv atlanta
680	221	baby born hiv cured max view profile rss researchers
680	221	hiv cure toddler offer global hope case toddler functionally cured hiv
680	221	noise baby cured hiv business baby born hiv start handling
680	221	finally cure hiv baby cured god great
916	201	chasing higgs teams rivals searched physics elusive particle
3	121	lessons peer flaw peer grading moocs inside higher
893	221	baby cure hiv raise hope question
893	221	hiv cure caution expert
48	222	catch movie weekend tweet review ve movie opening friday
106	135	boy bigdog robot throw cinder block room
680	221	doctors cure child born
1505	180	dig read sherlock sam win watson figurine sending sherlock sam receipt
69	183	evernote hacked don forget reset password
884	161	printing organ transplant future
889	128	kinderstuff brings private label kids fashion online secondhand store clothes outgrown tech
680	221	guide hiv cure game changer steven novella
680	221	doctor cured baby hiv called dr hannah gay sayin
680	221	editorial intriguing case baby cured
904	215	snow blower people work today
104	141	mila kunis interview oz great powerful will fall love movie news
680	221	hiv cure
104	141	mila kunis interview oz great powerful will fall love promotional interview
1546	133	cruise ship aground norway cruise ship aground water overnight
69	183	security evernote note archiving service hacked usernames mail addresses encrypted passwords exposed
70	181	costa concordia victims moments revealed
904	215	definitely snow driveway started snowblower
680	221	nytimes medical baby deemed cured
82	225	yesterday barbara walters return view
76	205	morsi mull army takeover port
893	221	public health news march news hiv cure budget cut equal weight gain
104	141	watch love gt mila kunis best interview
904	215	fresh snow pretty wet snow blower picked bad time die
110	121	future education eliminates classroom class mooc
680	221	hiv cure toddler offer global hope case toddler functionally cured
904	215	baby christmas heavy duty snow blower
76	205	morsi mull army takeover port
916	201	formal side field quantum higgs field particle field
1086	197	wait mad men season return don draper
916	201	chasing higgs
155	121	will moocs destroy november communications acm
890	123	thought day photograph fire raining sun
680	221	toddler functionally cured hiv infection nih supported investigator report
1107	217	will pope spotlight cardinal peter turkson ghana pope benedict xvi bronx
155	160	twitter powerful educational tool
889	128	kinderstuff brings private label kids fashion online secondhand store clothes outgrown
40	218	deadly florida sinkhole finally revealed team closer hole swallowed
1307	202	sultan amnesty wait boko haram
1580	122	creative jamaica caribbean creativity day left
1307	202	nigeria sultan demand amnesty bokoharam
680	221	baby cured hiv
904	215	real nigga snow blower
1581	111	reading move increase water supply drought continues
680	221	baby mississippi cured hiv accidentally reported
106	135	darpa big dog robot strong wild
893	221	baby cure hiv raise hope question health
104	141	mila kunis interview british best thing video
680	221	scientist baby born hiv cured
69	183	change evernote password asap hacked notify friend well cybersecurity
14	212	kate middleton royal baby kicking
40	218	video sinkhole revealed house demolished demolition crew removed house reveal sink
600	162	talk tough north korea sanction nuclear test
106	135	military robot dog learns trick
14	212	pregnant kate middleton recycles brown hobbs coat prince trust visit grimsby pregnant kate middl
600	162	talks tough nkorea sanctions nuke test abc news
1086	197	tv time mad men prepare glamour movie news
40	218	sinkhole swallowed sleeping florida man revealed demolished
104	141	mila kunis best interview watch
104	141	mila kunis best interview watch press duty oz
884	161	micro printer creates tiny structures seconds faster printing technology move resea
884	161	micro printer creates tiny structures seconds faster printing technology move resea
600	162	ugh north korea threatens cancel ceasefire ended korean war sanction nuclear test
884	161	micro printer creates tiny structures seconds faster printing technology move resea
884	161	redeye demand printed cars edge closer production
272	149	scott peters football safer nonprofit
62	183	evernote plan factor authentication week hack
62	183	evernote plan factor authentication week hack move
62	183	evernote plan factor authentication week hack
891	126	love christina aguilera pitbull song
904	215	snowblowers bank drift snow
175	168	cancer killing attack enemy venezuela vp maduro deliver demented leader
62	183	btwn evernote hack twitter dropping completely screwing franchise shitty week tech
69	183	evernote shoot foot click reset password
1407	206	sign class week yoga yarn bomb needle call sign
104	141	people mila kunis ll watching
600	124	comment drake britton dui story cop test fried chicken fuck
14	212	celebritynews duchess kate baby kicking recycles hobbs coat duchess kate celebrity gossip
889	128	buytrends women clothing solid lace crochet waist zip dress buy
680	221	researcher claimed ve cured infant hiv dat raise hope baby aid
3	121	peer grading moocs work edcmooc
175	168	chavez leaders cancer venezuela
175	168	chavez cancer attack enemy
1107	217	ll pope potential candidate pope black interesting
889	128	amidra amidra online clothing store
31	146	gmo project label good labeled organic doesn
680	221	ve heard baby aids cured
55	157	google hot news kim kardashian comfortable pregnant woman choice gtnews
889	128	amidra amidra online clothing store
904	215	ve latest episode republic patch change hammer slammed snow blower
106	135	bigdog robot play catch concrete block
62	183	evernote adding factor authentication
106	135	bigdog robot play catch concrete block boston dynamics darpa funded designed load carrying mule
62	183	evernote adopt step authentication security breach evernote week swift action
175	184	venezuela accuses enemy poisoning ailing president hugo chavez sentence people
680	221	doctor cure child born hiv sk
680	221	documented case child cured hiv
267	139	anti fracking celebs fooled
175	168	venezuela vp maduro caused chavez cancer chavez credited haiti earthquake keystone cop
175	168	national news venezuela vp chavez cancer caused enemy attack
258	166	maryland generate february
680	221	scientists report cure hiv child game changer
904	215	neighbor snow blower plastic shovel
106	135	search bigdog youtube ll scary robotic stuff spine
680	221	spotlight doctor treated baby hiv infection
172	124	report red sox britton dui arrest report red sox britton dui arrest
69	183	gizmodo evernote passwords stolen ll hurry better security
104	141	mila kunis thinks james franco doesn hollywood crush
884	161	graham giant nasa spider robot print lunar base
70	181	costa concordia victims moments revealed story passenger drowned seat
1214	209	chelyabinsk meteorite full compilation
890	123	solar activity update massive halo cme solar flare march
267	139	anti fracking celebs fooled
680	221	holy cured baby hiv
1075	169	honey boo boo alana thompson sell girl scout cooky life rich time
886	180	bet sherlock holmes rocked shit elementary school
786	145	sequestered spring fewer rangers services national parks early march yosemite national park
172	124	drake britton arrested ft myers dui driving mph
904	215	snow blower deck
272	149	report roger goodell terrified nfl player will die field
31	146	gmo poll finds huge majority foods labeled cast vote
1307	202	sultan advocate amnesty boko haram abuja sultan sokoto alhaji
891	126	music break feel moment feat christina aguilera pitbull
69	183	security expert find flaw evernote password storage breach privacy
241	206	love work consider yarn bomb
175	168	hugo blaming united states infecting cancer seriously
77	158	bbq hush puppy king
1303	143	fifa maracana stadium rio janeiro maracana stadium fifa main worry brazil prepares
893	221	bbc news hiv baby cured early drug treatment
891	126	dale thks playing np nowplaying feel moment pitbull christina aguilera xo
69	183	evernote hack password good evernote revealed weekend vi
175	168	cancer talk victim mentality ch vez venezuela expels diplomats
69	183	evernote hack password good evernote revealed wee
786	145	sequestered spring fewer rangers services national parks
786	145	sequestered spring fewer rangers services national parks
104	141	oz powerful grand movie lot great cgi
1303	143	cup fifa fret maracana stadium yahoo eurosport uk worldcup
104	141	mila kunis oz gt gt gt gt
1086	197	exclusive mad men marvelous premiere coming watch promo mad men late night carbs
175	184	venezuelan president hugo chavez died vice president maduro told nation tuesday
175	184	hugo chavez
40	218	second sinkhole florida man swallowed
175	184	venezuelan president hugo chavez dy
1086	197	exclusive mad men marvelous premiere coming watch promo mad men late night carbs
175	184	breaking venezuela hugo chavez died vice president nicolas maduro report state tv
175	184	hugo chavez died
175	184	venezuelan president hugo chavez died vice president maduro told nation tuesday
175	184	venezuelan president hugo chavez dy
175	184	president hugo ch vez dies battle cancer york times brisbane hugo ch vez dies
175	184	venezuelan president hugo chavez dy
175	184	venezuelan president hugo chavez dy
175	184	death chavez venezuela will conduct election day
175	184	breaking cnn reporting hugo chavez died
172	124	boston red sox prospect drake britton reportedly arrested dui mlb
175	184	venezuelan president hugo chavez died
175	184	hooray venezuelan president hugo chavez dy
175	184	venezuela hugo chavez dead venezuela president hugo chavez died vice president announced
175	184	venezuelan president hugo chavez dy
175	184	venezuela hugo chavez dead venezuela president hugo chavez dy age battle wit
175	184	venezuelan president hugo chavez dy
175	184	international news venezuela hugo chavez dead venezuela president hugo chavez dy age
175	184	venezuelan president hugo chavez dy
175	184	hugo chavez venezuelan leader foil dy
175	184	venezuelan president hugo chavez dead
175	184	venezuelan president hugo chavez died vice president maduro told nation tuesday
175	168	chavez cancer attack enemies vp venezuelan president hugo chavez infected cancer
175	184	venezuelan president hugo chavez dy venezuela vice president announced president hugo chavez died
175	184	venezuela hugo chavez dy aged venezuela president hugo chavez dy age battle
175	168	venezuela chavez death historically speaking base
1126	214	contentious common core controversy gt tom newkirk speaking common core
175	184	venezuela hugo chavez dy aged venezuela president hugo chavez dy age battle
1126	214	principal ve common core screen
175	184	venezuelan president hugo chavez dead vp fox news
175	168	chavez infected cancer foe venezuela vp reuters
175	184	teamfollowback hugo chavez venezuelan leader foil dy cbs news
786	167	sequester blame halting white house tour will obama vacation sequester sequestration tgdn
1099	122	kickstarter project live clothing
175	184	urgent venezuela hugo chavez dies vice president
104	141	michelle williams mila kunis wore runway oz premiere pulled
175	184	vice prez maduro will succeed hugo chavez interim president hold election day
680	167	sequestration problem
1307	202	sultan sokoto demands amnesty boko haram islamists mistake
175	184	venezuelan president hugo chavez died vp nicolas maduro
175	168	vp chavez cancer rid people stable
14	212	pregnant kate middleton girl royal slip tongue indicate daughter omg
69	183	evernote revealed weekend victim data breach user posting gaming
1307	202	sultan seek amnesty boko haram member
14	212	pregnant kate middleton girl royal slip tongue indicate daughter
175	184	venezuelan president hugo chavez dead vp fox news
175	168	hugo chavez dies venezuelan vp blames cancer attack
175	184	factbox venezuela election candidate chavez death caracas reuters health news
886	180	sex mystery television sherlock bones sherlock bones mysteriously sexy tale
77	158	dinner consists leg shrimp corn cobb hush puppy
904	215	ugh hate gas exhaust smell cheap toro snowblower leaf clothes time driveway
175	184	venezuela hugo chavez dy aged venezuela president hugo chavez dy age battle
175	184	hugo chavez venezuelan leader foil dy cbs news cbc cahugo chavez venezuelan leader foil
175	184	venezuelan president hugo chavez dy vp venezuelan president hugo chavez dy vp
891	126	pitbull ft chris brown international love lyrics song pitbull chris brown
175	184	malware hugo chavez venezuelan leader foil dy cbs news cbc cahugo chavez venezuelan leader
175	168	hugo chavez infected cancer enemy vp
175	168	hugo chavez cancer result conspiracy vice president hugo chavez cancer
175	184	hugo chavez venezuelan leader foil dy cbs news globe chavez venezuelan leader
175	184	venezuela hugo chavez dy cancer caracas reuters venezuelan president hugo chavez died tuesday
175	168	worrying leader hugo chavez liking killed induced cancer
891	126	dance pitbull stage bud light gotta practice
680	221	hiv toddler case toddler functionally cured hiv wide ranging global fight
680	221	queer baby free hiv doctor talking breakingnews nbc news baby born infected
36	193	bulgarian set fire symbol protest
175	184	hugo chavez venezuela dy cancer venezuelan presiden
3	121	help cut mooc cheating education news
134	124	goal worst day life bendtner apologises drink driving arrest
104	141	mila working cgi character ted help prepare working oz great powerful james franco
680	221	hopkins hope hiv cure toddler remarkable recovery
916	201	fyi higgs boson confirmed discovered
62	183	remains day evernote roll factor authentication
904	215	snow blower john fact
175	184	hugo chavez dead elections day
886	180	sherlock holmes museum london sherlock holmes doctor watson lived baker street
10	147	time victoria secret commercial punch face
889	128	shouldn plan birthday party online shopping perfect outfit studying
62	183	evernote factor authentication itnews
134	124	worst day life bendtner apologises drink driving arrest
134	124	worst day life bendtner apologises drink driving arrest danish tscent
175	184	hugo chavez venezuelan leader leaf uncertain legacy toronto star toronto chavez venezuelan lea
896	126	music pitbull dade county lil wayne diss
142	163	bitcoin currency future
175	184	president hugo chavez dy
104	141	dying watch great powerful oz mila kunis
889	128	amidra amidra online clothing store
10	147	hate victoria secret commercial girl feel shit body
10	147	victoria secret commercial guy
175	184	venezuelan president hugo chavez dy cnn
175	168	venezuela claim united states chavez cancer imagine lol
1214	123	explosion active region sun exploded early hour march
10	147	tf huge boob victoria secret commercial fat people robert fat people
175	168	anonymous anonops hugo chavez dies venezuelan vp blames cancer attack
104	141	mila kunis amazes friend benefit oz
14	212	pregnant kate middleton girl royal slip tongue indicate daughter online
139	120	imf bank visit argentina financial system buenos aires march reuters officials
110	121	moocs enemy
1126	214	well sustained common core standards poisoned read opinion
786	145	sequestered spring fewer rangers services national parks
680	221	video baby born hiv cured
680	221	news hiv cure
886	180	photoset sherlock au david sherlock holmes amp billie piper joan watson god
680	221	day cured hiv child kid money
680	221	monday news headline full story baby cured hiv
680	221	study early treatment art cure baby infected hiv
904	215	sooo ready park snow blower pick golf club
10	147	victoria secret commercial bye
62	183	hack evernote speed move factor authentication evernote speeding plan offer
175	168	urgent chavez chavez cancer die careful devil cross gt gt
175	168	urgent chavez chavez cancer die careful devil cross gt gt
175	184	vp maduro assume presidency death venezuelan president hugo chavez vice president nicola
891	126	don party feat tjr pitbull bbc radio
1075	169	daily gossip girl scouts honey boo boo
884	161	printed car cool
891	126	great pick play np nowplaying feel moment pitbull christina aguilera
1546	111	shortages food water
175	184	venezuela chavez dy official call unity caracas venezuela ap fear ve
1307	202	declare total amnesty boko haram sultan jonathan
893	221	unaids unicef hiv baby cure royal times nigeria newspaper
134	124	juve send nicklas bendtner afc loan striker conviction drink driving native denmark mirror
1574	215	top best selling snow blowers free shipping
155	160	tech learning social media place classroom twitter
680	221	doctor cracked code curing aids baby christian wife mother
82	225	yahoo top news barbara walters chicken pox frank
134	124	juve send striker nicklas bendtner arsenal loan striker conviction drink driving native denmark
175	184	venezuela hugo chavez dy funeral set friday death president hugo chavez vice president
175	184	venezuela hugo chavez dy funeral set friday death president hugo chavez vice president
1104	181	detail costa concordia death
39	134	hahaha question
104	222	excited open oz great powerful thursday march magical
1104	181	detail costa concordia death news
175	184	venezuela stable chavez death election called day xinhua stable
175	184	venezuela stable chavez death election called day xinhua
175	184	venezuelans mourn chavez focus turn funeral election caracas reuters venezuelans mourned
104	222	cs video sam raimi cast oz great powerful arriving theater friday oz grea
886	180	series patch sherlock cumberbatch modern day sh
893	221	wonderful news check unaids unicef baby cured hiv
1307	202	sultan president jonathan grant amnesty boko haram members
1307	202	sultan sokoto boko haram member
104	141	mila kunis talk chris stark epic time mila kunis thr epic
48	195	argo bad favorite character ben affleck beard
175	184	chavez impact death venezuelans mourn death hugo chavez country
175	184	chavez impact death venezuelans mourn death hugo chavez country
175	184	chavez impact death venezuelans mourn death hugo chavez country
56	158	free hushpuppies long john silver
886	180	sherlock holmes century complete series movie sherlock holmes century complete se
1407	206	hanging yarn ball
272	179	stay continue iditarod
62	183	evernote adopt step authentication security breach
175	184	venezuelan president hugo chavez dead battle cancer fox news
110	121	moocs creating competition will force professor improve pedagogy face online competitor
907	223	video playlist dog training tutorial leash exercise send
175	168	chavez death plot enemy latin america disease russia communist leader
175	184	thought amp prayer venezuelan family venezuelan president hugo chavez dead fox news
175	184	venezuelans mourn chavez focus turn funeral election caracas reuters venezuelans mourned
175	184	death chavez choice successor caracas venezuela ap death hugo chavez order
175	184	venezuelans mourn chavez focus turn election caracas reuters venezuelan president hugo chavez
175	184	vp maduro ready lead venezuela chavez death death hugo chavez order follow
1307	202	sultan seeks amnesty boko haram members sultan sokoto alhaji abubakar iii tuesday
110	121	innovative step disruption moocs top colleges elite highered innovation
175	184	chavez impact death venezuelans mourn death hugo chavez country
1307	202	sokoto sultan seek amnesty boko haram member
175	184	venezuelans mourn chavez focus turn funeral election caracas reuters venezuelans mourned
175	184	chavez impact death venezuelans mourn death hugo chavez country
1570	216	cognitive behavioral therapy helps treat diabetic researchers boston university school
1307	202	nigeria muslim leader urges amnesty boko haram
62	183	evernote adding factor authentication security informationweek glad
48	195	argo deserves oscar award best picture bravo ben affleck director main actor
175	184	death chavez choice successor caracas venezuela ap death hugo chavez
172	124	red sox prospect drake britton reportedly arrested dui
904	215	bout fire snow blower money
175	184	venezuelans mourn president chavez venezuela day mourning death president hugo
40	218	crew entombed man swallowed sinkhole tampa earth opened
110	121	mooc move online courses staggering enrollment ivy league
893	221	baby hiv cure raise question answer
204	111	global shortage extra olive oil
14	212	kate baby slip
175	184	chavez death death hugo chavez leaf question venezuela wo
889	128	urban clothing online urban clothing store buy streetwear online seo traffic wholesale skatewear online
680	221	doctor cure baby born hiv groundbreaking trial sun news
175	184	chavez impact death venezuelans mourn death hugo chavez country
175	184	chavez impact death venezuelans mourn death hugo chavez country
904	215	telling damn snow blower appeal
893	216	diabetes institute developed mini organ delivering real insulin real time type diabetes diabetes
48	121	educators deal hate speech threat amp talk suicide moocs
916	201	accelerating understanding review nyt feature higgs boson physic
904	215	dear man school closed playing snow blower blow
1126	214	principal ve common core interesting article thoughtful discussion comment
175	184	death chavez choice successor yahoo news
680	221	prevention baby hiv cnn prevention baby hiv cnn
1079	223	chase big dog chase coat big dogs llc classic chase coat
36	193	bulgarian mayor resigns man set fire sofia reuters mayor bulgarian city
175	168	breakingnews chavez chavez cia victim
155	121	dark side moocs infografia infographic internet education
40	218	plz flw sinkhole victim missing presumed dead jeff brother year jeremy bush
272	149	nfl report goodell terrified field death isn true washington post blog nfl
56	131	concepts director carrying wet bride trash dress demonstration
258	166	table game unveiled hollywood casino perryville baltimore sun blog
14	212	kate middleton baby girl gross obvious reasons
680	221	ve cured baby mother
680	221	medical baby deemed cured
1203	170	jack kirby concept art real life argo film project super
680	221	article baby hiv cured health science news
104	141	mila kunis bbc oz interview rails video
89	176	today meeting book study passion driven classroom faculty member excited
267	139	anti fracking celebrities yoko ono mark
175	184	venezuelans mourn chavez prepare election
904	215	snow suck today snow super heavy packing inside snow blower hr finally melting
904	215	shovel dad snow blower money doe
904	215	street share snow blower
175	168	killed chavez
904	215	snowblowed driveway today fml caribbean meet atlantic bahamas
904	215	blessed snow blower
104	141	gonna oz mila kunis
886	180	pretty doctor sherlock best qt doctor john sherlock best
786	145	impact sequestration budget cut state commons lab blog post
104	141	mila kunis play beautiful innocent witch theodora oz great powerful
106	135	bigdog
175	184	venezuelans mourn chavez focus turns election
1075	136	girl fascinating frightening perspective relationship single idea drive entire story
786	145	sequestration canceling cave tour mammoth cave national park lost fee nationalparks
600	162	amp china introduced joint resolution nations security council intensify sanction north korea nuclear test
904	215	sound better tree fell night snow storm barely hurting brand deck snow blower working fine
110	121	emerging student pattern moocs graphical view highered
916	201	york time article discovery higgs boson inspiring awful
175	184	streets packed chavez procession political outcome wake venezuelan president hugo chavez
36	205	protests rage egypt port fourth day newzsocial
14	212	kate middleton slips baby gender watch duchess hint baby girl video
14	212	kate middleton slips baby gender watch duchess hint baby girl video
48	195	argo mile argo deserved oscar amp superbly well cloud atlas big mess
110	121	mooc improve irony data mt emerging student patterns mooc graphical view
172	124	red sox pitcher mph driving drunk
104	141	thing beauty chris stark interview mila kunis oz best interview
1107	217	ian cardinal marc ouellet attractive candidate pope ottawa citizen
884	161	printed moon base concept envisions outpost baked lunar dust
104	222	photos oz great powerful premiere oz
1214	209	meteor year russia expert
884	161	nasa print lunar base giant spider robot
175	168	left hugo chavez cancer
1407	206	yarn bomb guerrilla knitting police uk neighbourhood feel safer
1075	136	review gillian flynn girl
175	184	streets packed chavez procession political outcome hugo chavez death remains uncertain
55	212	guess pregnancy craving kim kardashian kate middleton
272	149	roger goodell talk player safety future nfl nfl commissioner roger goodell conducted
680	221	survive miracle baby cured hiv doesn fight aids
48	195	day argo oscar nominated animated shorts argo well today
175	168	venezuela vp cancer caused ahmadinejad chavez will rise jesus crazy
104	141	wicked witch revealed oz movie
1435	114	march adding efm detroit african americans michigan lose vote egypt
886	180	bet sherlock holmes rocked shit elementary school
884	161	printed skull implant ready operation operation fda replacement
94	122	reminder milking promising original kickstarters fail
14	212	kate middleton pregnant daughter hints baby bump girl bear gift
14	212	pregnant kate middleton girl video sparked report watch
680	221	hydeia broadbent born hiv reacts cure abc news abc broadbent bor
889	128	corner consignment perfect children clothing corner cons clothes
110	121	moocs improve replace traditional course
1086	197	waiting inevitable hipster mad men tumblr
893	216	insulin advance insulin replacement diabetes obesity metabolism endo
175	168	reporter state mouth piece chavez claim poisoned cancer reality kill
1126	214	progress commoncore state standards cc
175	184	venezuelans street chavez plaza venezuela today hugo chavez follower clear
175	184	venezuelans street chavez plaza venezuela today hugo chavez follower clear
104	141	oz great powerful family review parents movie rated
891	126	michelle obama pitbull move campaign video
1079	179	love sport money draw iditarod musher
1380	113	ve harold kumar guantanamo bay real
272	149	goodell nfl football safer nfl commissioner roger goodell league dallas news
272	149	roger goodell talk football safety espn goodell talk football hill nf
258	166	hollywood casino perryville md open table games perryville md hollywood casino
916	201	higgs boson
110	121	thoughtful approach moocs
916	201	god particle aka higgs boson
272	149	goodell nfl football safer yahoo sports chapel hill ap nfl commissioner ro
272	149	goodell nfl football safer nfl commissioner roger goodell league will continue
272	149	goodell nfl football safer nfl commissioner roger goodell league will continue
69	183	compromised evernote hack breaking news popular
110	121	massive open online courses sparking gain feeling growing pain moocs college course wo
272	149	goodell nfl football safer nfl commissioner roger goodell league will continue
1075	169	honey boo boo joins girl scouts women asked parent sell cooky
204	111	olive oil shortage prices soar effects devastating drought hit huffingtonpost
175	184	thousands march chavez coffin venezuela day mourning death president hugo
272	149	goodell nfl football safer nfl commissioner roger goodell league will continue
175	184	thousands march chavez coffin venezuela day mourning death president hugo
893	221	baby free hiv doctor talking cure vitals
1583	194	washington weekend week totally ready cherry blossom
36	220	blog scores injured bangladesh protest rage
155	121	higher leader meet discus future online education
175	168	hugo chavez cancer conspiracy theories death
680	221	exploring media baby cured hiv aid hiv
14	212	kate middleton slip reveal royal baby gender
272	149	goodell nfl football safer chapel hill ap nfl commissioner roger goo football
893	221	bbc news analysis cure hiv
886	180	sherlock holmes
891	126	thks playing np nowplaying feel moment pitbull christina aguilera dale xo
893	216	woman diabetes care pregnant washington ap developing diabetes pregnancy isn
175	168	cancer weapon kill hugo chavez
904	215	lose shovel snowblower
886	180	blake lively sherlock holmes premiere york city december
922	144	downton abbey loses actor
1546	111	drought water washing machine water garden pot plant lawn
1126	214	educators deadline common core won met tampa bay times
904	215	bring weatherman snowblower
786	145	national parks colorado river voice help
1099	122	crowdfunding arnold bus kickstarter project
104	141	case missed today amazing mila kunis interview radio
69	183	compromised evernote hack
104	141	oz great powerful disney john carter flop disney oz great
110	121	tom friedman mooc piece side
904	215	bring weatherman snowblower
104	141	oz james franco mila kunis obsession continues
110	121	pile money moocs haven revealed plan
1079	179	iditarod mushers kill thousands dogs dogs sled iditarod trail sled dog rac
104	141	mila kunis sleek hairstyle oz great powerful premiere reason mil
104	141	mila kunis sleek hairstyle oz great powerful premiere reason mil
31	146	action iowa state legislator support ge labeling pesticide action network north america
1307	202	sultan sokoto sa ad abubakar tuesday appealed federal government grant amnesty
889	128	oasis shop pale grey lace print dress womens fashion clothing oasis stores uk
172	124	red sox prospect drake britton reportedly arrested dui boston red sox drake britton arrest
272	149	goodell nfl football safer
272	149	goodell nfl football safer nfl commissioner roger goodell league will continue
886	180	grand gift silence watson invaluable sherlock holmes
104	141	mila kunis sleek hairstyle oz great powerful premiere
1308	154	red wine red grape resveratrol substance appears protect hearing loss
1308	154	red wine red grape resveratrol substance appears protect hearing loss
77	158	purple crawfish hush puppy
893	221	doctor gutsy move led baby cure hiv jackson mississippi chicago illinois reuters
1494	134	watching middle checked getglue abc
890	123	nasa sdo fiery looping rain sun youtube
104	141	wanna oz movie mila kunis
40	218	plz flw fla sinkhole swallowed man grows deeper seffner fla ap engineers worked
1494	134	nw themiddle getglue abc
1576	134	frankie mike abc cute
1528	134	tonight episode abc brick read aloud axl reading coincidence
893	221	doctor gutsy move led baby cure hiv reuters abc newsus doctor gutsy move led baby
1107	217	sex abuse victim list dirty dozen papal candidate
1303	143	fifa worldcup fifa cancels stadium inspection visit flood concern preparation
155	121	will moocs affect education
904	215	lose shovel snowblower
258	166	play start maryland table game
1086	197	week thought mad men debuted night game thrones
893	221	hiv cure raise hope caution
600	162	australia citing nuclear test bar north korea reopening embassy canberra reuters australia ba
1528	136	girl ready player great read
889	128	order clothes online send shit ordered waiting
175	168	video cancer weapon kill hugo chavez
40	218	plz flw fla man swallowed sinkhole feared dead florida man presumed dead friday
104	141	cute love mila kunis
904	215	bring weatherman snowblower
10	147	victoria secret commercial feel shitty
889	128	cheap clothing stores clothing shopping online buy xoxo sheer front
175	184	body hugo chavez lie state body venezuelan president hugo chavez lie state caracas
175	168	cancer weapon kill hugo chavez cancer drugs plot conspiracy power sv vaccine sherman mary
1107	217	sex abuse victim list dirty dozen papal candidate
104	141	oz great powerful costume sketches rachel weisz mila kunis wicked style
55	157	kim kardashian wear top
680	221	time baby cured doctors
175	168	venezuela expels embassy official amid chavez cancer conspiracy watch clue
680	221	christian missionary cure hiv infant dr hannah gay
1307	202	blasts sultan boko haram amnesty call christian association nigeria yesterday dismissed
175	168	venezuela expels embassy official amid chavez cancer conspiracy politics internal consumption
104	141	oz great powerful costume sketches rachel weisz mila kunis wicked style
272	149	goodell nfl football safer
104	141	going watch oz great powerful mila kunis
175	184	bbc news body venezuela hugo chavez lie state
916	201	update higgs boson discovery coming week
104	141	absolutely mila kunis
886	180	bet sherlock holmes rocked shit elementary school
1307	202	owned oil block amnesty boko haram presidency updates
40	218	sinkhole shirley brewer florida call search man swallowed sinkhole
139	120	dtn latin america imf mission argentina check financial system framework
175	184	bbc news body venezuela hugo chavez lie state
1107	217	electors meet conclave cardinal summoned choose pope expected arrive
1107	217	electors meet conclave cardinal summoned choose pope expected arrive
680	221	doctors cure baby born hiv time
1584	209	ru ii cu chelyabinsk
175	184	bbc news body venezuela hugo chavez lie state
786	145	national parks colorado river voice help
175	184	venezuelan president hugo chavez dead battle cancer hugo chavez president venezuela
1107	217	australian american canadian papal candidate named sex abuse cover victims se
272	149	goodell nfl football safer
904	215	imma buy snow blower
891	126	nowplaying pitbull pitbull feat christina aguilera feel moment bb radio berlin ger
1203	170	grow tony mendez argo
600	162	north korea threatens nuclear strike
1099	122	death kickstarter fails developer release ipad puzzle game monster meltdown
175	168	cia south american leader cancer
600	162	north korea threatens nuclear strike los angeles times news
893	221	doctor gutsy move led baby cure hiv
1099	122	death kickstarter target studio release ipad puzzler monster ipad
110	121	mt thomas friedman wrong moocs essay inside higher lt cmoocs xmoocs hello
1307	202	disagrees sultan amnesty boko haram sect
884	161	road ready printed car news fuel efficient printed car set hit road ye
110	121	emerging student patterns moocs graphical view
55	157	kim kardashian pregnancy style photo gallery
89	176	author announces national book club
106	135	cider block throwing robotic dog awesome scary robot
104	141	lol mila kunis wear fake breast oz movie cuz wasn big
101	120	argentina power avoid catastrophe argentina spiraling chaos culprit short
893	216	study links pesticides type diabetes diabetes pesticide type
884	161	road ready printed car design
110	121	critical note article thomas friedman nyt mooc
101	120	argentina power avoid catastrophe argentina spiraling chaos culprit short
175	168	finally remembered venezuelan vp chavez infected cancer west
886	180	sherlock
680	221	hydeia broadbent born hiv reacts cure abc news abc news hydeia broadbent born hiv health
1307	202	blast sultan boko haram amnesty call abuja christian association nigeria yesterday dismissed
272	149	goodell calls culture safety denies fears nfl player dying field
175	184	venezuela hugo chavez eye upcoming election warily video christian science monitor
175	184	venezuela hugo chavez eye upcoming election warily video christian science monitor
600	162	north korea warns preemptive nuclear strike
104	141	mila kunis talk chris stark scott mills radio best interview
14	212	kate middleton prince william baby girl rumors transcript kate middleton prince william baby girl rumor
40	218	florida sinkhole visible victim demolished
1303	143	maracana will ready cup cup insists fifa general secretary jerome valcke rio stadium
1075	136	goodbye social life ve finished girl book
104	141	video mila kunis talk chris stark scott mills radio
175	168	washington infected late president hugo chavez cancer virus vice president nicolas maduro
886	180	watched elementary followmytv
104	141	mila kunis hair london oz premiere mila kunis
889	128	clothing buy online isn stock
600	162	update furious sanction vote north korea vow launch pre nuclear strike
893	216	cook food raise risk diabetes
886	180	sherlock yg bbc kn cumberbatch tp yg elementary follow fresh seberat sherlock
1086	197	est lauder mad men collection wasn excited
904	215	youtube york county resident shovel rev snow blower
89	176	remember house party blog book club well vote book
3	121	students moving moocs
600	162	breaking adopts north korea sanction nuclear test bbc news
1307	202	dailypost amnesty boko haram jonathan
600	162	ap news security council approves sanction punish north korea latest nuclear test
104	141	mila kunis alexander mcqueen london premiere mila kunis attended premiere latest
155	121	professors big stage moocs revolution hyped driver boston disagrees
5	161	plastic printed car ready street
89	176	join book club oprah
14	212	pregnant kate middleton prince william visit child bereavement uk
175	168	nwo latin american leader criticised policy fall ill cancer simultaneously
1582	139	don frack john lennon farm
14	212	kate middleton nose picking boy check royally epic photo
1307	202	declare amnesty boko haram president jonathan president goodluck jonathan thursday cont
600	162	north korea threatens preemptive nuclear attack destroy approves sanction nuclear test
106	135	bigdog robot throw heavy block concrete bigdog robot throw heavy block concrete
3	121	moocs future higher
600	162	bbc news adopts tough north korea sanction nuclear test
31	146	groups collaborate promotion organic food labeling
40	218	body man swallowed florida sinkhole house demolished chasm filled picture
1307	202	jonathan decline amnesty boko haram president goodluck jonathan ruled granting nigeria news
884	161	printing open source electric car news
1307	202	nigeria jonathan reject amnesty call boko haram president goodluck jonathan visiting region
1307	202	jonathan reject amnesty call boko haram president goodluck jonathan visiting region heart
1454	128	disadvantages buying clothes internet
1307	202	boko haram declare amnesty ghosts jonathan day state capital
89	176	night circus erin book center book club pick
907	189	nick shut dog ugly dog mini wanna dog will actual pet store dog
104	222	grab tomorrow oz great powerful exclusive poster opening day stock
155	121	moocs storify
600	162	ap news security council approves sanction punish north korea latest nuclear test
605	140	project celebrate king richard iii press york
1586	150	london produce organic wine middle age forty hall community plant vine
889	128	didnt online omg online bought clothes tour
272	149	goodell nfl football safer yahoo sports
600	162	warns north korea suicidal nuclear threat expands sanction guardian guardianus war
155	160	pros cons social media education schools social medium growing inte
884	161	road ready printed car
104	141	movie review oz great powerful starring james franco oz great powerful starring james
600	162	north korea threatens nuclear strike expands sanction
138	224	news nyse official dark pool january handled trading volume big board time pm
680	221	vemma steps hiv toddler functionally cured
258	166	table games live dealers debut maryland poker
893	221	doctor gutsy move led baby hiv cure
884	161	printed skull implant ready operation
884	161	printed skull implant ready operation
884	161	printed skull implant ready operation printing technology helped replace patient
1307	202	jonathan reject amnesty call boko good idea
104	222	land story don oz great powerful open tomorrow
532	123	curiosity rover sleep wait solar storm
884	161	printed skull implant ready operation
884	161	printed skull implant ready operation
1585	115	rogers nba share friend help contagious positive attitude
884	161	printed skull implant ready operation dprinting
138	224	news mysterious dark pools trading action nyse time smallbiz
532	123	curiosity rover sleep wait solar storm
532	123	curiosity rover sleep wait solar storm
532	123	curiosity rover sleep wait solar storm wired
48	195	ben affleck shaved lucky beard moments argo oscar win
884	161	printed skull implant ready operation
1099	122	ios game word warfare brandon kickstarter
110	121	highered great review open access versus moocs
680	221	super promising breakthrough hiv infected babies baby born virus cured
110	121	mooc hq collection great follow evolution amp conversation moocs mooc yam
884	161	patient skull printed scientist american cent daily mail dprinting
76	193	february bulgarian artist set fire front building city
104	141	movie review oz great powerful stars movie review
884	161	printed skull implant ready operation socialmedia
1079	223	bentley leash afternoon amp searching hour prayers lord bring baby
886	180	star tv sherlock
886	180	sherlock holmes
786	145	local newspapers sequester cuts hitting buzzfeed
1307	202	president jonathan declare amnesty ghosts read
890	123	photo solar spit image captured nasa solar dynamics observatory blast
916	201	three cheers science cern scientist higgs boson year
14	212	kate middleton shopping maternity wear topshop kate spotted picking maternity piece
104	141	mila kunis talk chris stark scott mills radio good interview lad
104	222	day oz great powerful open theater tomorrow ticket wait
916	201	chasing higgs large hadron collider geneva
1435	114	blocking freeway protest efm poor detroit
110	121	massive open online course mooc resume
1470	117	marshmallow peep bra
104	222	box office preview oz eyeing great powerful global opening
1587	126	internet rapper pitbull
1107	217	sex abuse victim group worst candidate pope pope benedict xvi resigned
886	180	irene sherlock sherlock holmes
1505	194	andy amp cherry blossom dc year moved area year ago romantic picnic
904	215	bring weatherman snowblower
600	162	great north korea hit sanction test link bio
600	162	north korea hit sanction test link bio
1308	154	anti aging secret red wine
600	162	aljazeera news approves sanction north korea move prompted north third nuclear test
600	162	expansion north korea sanction nuclear threat guardian
1308	154	study support anti aging red wine ingredient resveratrol boston globe
600	162	wrapup north korea threatens nuclear strike expands sanction
175	184	updates hugo chavez body stay display body late venezuelan leader hugo chavez will
1308	154	study support anti aging red wine ingredient resveratrol paid si
175	184	hugo chavez body stay display body late venezuelan leader hugo chavez will display
893	216	type diabetes rate concern hunter valley foundation survey people se
55	212	kate shops maternity dresses
891	126	started pitbull nowplaying
89	176	going book club love book club going detroit june book club
904	215	lose shovel snowblower
1307	202	jonathan reply sultan amnesty boko haram president goodluck jonathan thursday federal
1307	202	jonathan reply sultan amnesty boko haram president goodluck jonathan thursday federal
1086	197	amc dust sunday best break cocktail mad men premiere month today
600	162	expansion north korea sanction nuclear threat guardian
104	222	day oz great powerful open theater tomorrow ticket left
904	215	bring weatherman snowblower
886	180	bet sherlock holmes rocked shit elementary school
77	158	amp hush puppy dinner
175	184	venezuela chavez embalmed public view caracas reuters venezuela hugo chavez will embalme
904	111	concerns mount california water shortage despite bumper snow winter lack snow rain wi
891	126	dad ivy rap bald pitbull dad terrible don tough
272	149	player quit playing football safe football injury nfl joke
104	141	oz great amp powerful james franco rachel weisz mila kunis michelle williams dir sam raimi bring
1588	174	star older universe oldest star appears older
1307	202	boko haram amnesty ghost jonathan proponents amnesty boko haram member piece
889	128	don enjoy clothing store shopping online shopper
1086	197	tv teaser mad men season april finally
1307	202	bbc music nigeria boko haram amnesty dismissed
889	128	create custom clothing online
1307	202	amnesty boko haram jonathan
272	149	sports log roger goodell lt gt nfl lt gt focus safety
31	146	time sign petition labeling gmos sign gmo gmos
893	154	good drop red wine molecule healthy
110	121	open compass latest evolution mooc
175	184	venezuela chavez embalmed public view caracas reuters venezuela hugo chavez will embalme
886	180	elementary eye eye will sherlock find killer professor cbs live
1086	197	photos mad men set don roger harry cruising
605	128	urban clothing jay clothing rocawear mtv news popular clothing brand
886	180	con sherlock elementary
0	130	good lawyer law clever judge lunch law professor
904	215	bring weatherman snowblower
889	128	search rock star clothing online well shop buckle kind avoid giant douche day
1303	143	football plan maracana ready fifa
884	161	printed skull implant ready operation discovery news
1104	133	ft sea god bless people imagine half cruise ship sick cant imagine raft
1307	202	bbc news nigeria president reject boko haram amnesty call
904	215	lose shovel snowblower
893	216	consuming risk pre diabetes pre diabetes stage type
76	205	egypt protester shot dead port israel
1126	214	map state pushing common core update
1104	133	lawyer article cruise industry association adopts safety policies
532	123	mars rover sleeping solar storm space daily
886	180	sherlock
104	222	gonna dress work tomorrow oz release movie oz great powerful
891	126	nowplaying havana brown night feat pitbull rap
104	141	record mila kunis fire oz
904	215	lose shovel snowblower
14	212	kate middleton latest shopping trip
40	218	plz flw search called florida man swallowed sinkhole rescue worker saturday
889	128	nice online shop friend york fashion clothing night shirt
1307	202	jonathan replies sultan declare amnesty ghosts boko haram talk
1079	179	iditarod mushers kill thousands dogs
1307	202	jonathan boko haram declare amnesty ghosts
1307	202	boko haram granted amnesty fg oil thief granted amnesty
76	205	cairo port tension ahead crucial court ruling egypt
1307	202	muslim sect boko haram amnesty em amp tel fighting
1307	202	declare amnesty ghost jonathan
1307	202	jonathan reply sultan amnesty boko haram
104	141	movie review oz great powerful starring james franco
884	161	dude percent skull replaced printed replica geek
1307	202	voice nigeria nigeria news amnesty boko haram jonathan
1099	122	death kickstarter target studio release ipad puzzler monster meltdown
104	222	will oz great powerful box office chicago tribune
104	141	mila kunis flying high fear mila kunis arrived california native ukraine aged seve
1307	202	declare amnesty ghost nigeria jonathan reject call bokoharam amnesty
175	168	latin american leaders criticised policies fall ill cancer simultaneously
55	212	kate high street maternity style friday feature don royal bank account maternity wear
104	222	disney oz great powerful hit theater friday review
1079	179	iditarod mushers kill thousands dogs
904	215	thinking jack hubby snowblower
110	121	mooc dropout rate
884	161	printed skull implant ready operation
1075	136	finished girl good
1307	202	president jonathan denies boko haram amnesty claims ghosts president goodluck
175	184	venezuela chavez embalmed public view caracas reuters venezuela hugo chavez will embalme
175	168	connecting dots infected hugo chavez cancer stephen
1503	163	bitcoin insight digital currency jumped sky high bitcoin
904	215	bring weatherman snowblower
889	128	week beautiful online collection african product clothing amp accessory
886	180	sherlock holmes
76	205	news fourth night violence port
104	222	memory man great powerful will oz box office disney cl imm
