76	205	feb egypt protest bring port
891	126	pitbull watch move albert hitchcock hate pitbull
890	123	nasa video cme solar flare amp coronal rain
886	180	forget british sherlock holmes interesting better american
262	152	fbi jurisdiction iceland interrogate person wikileaks feb
893	216	reduce type ii diabetes risk sunshine vitamin intake
1214	209	chelyabinsk meteor flash
886	134	appreciate sue heck dam hard abc
886	180	mais uma coisa em sherlock
532	203	freak storm damage hundreds damaged freak weather system abc news
77	158	word long john silver fish fry hush puppy vinegar hot sauce
1521	157	dear god mirror pic
890	123	blazing arc rains fire sun
1203	170	jimmy carter fact check argo portrayal canadian contribution canadian cia
1214	209	chelyabinsk russia meteor explodes sky amazing sound shockwave chelyabinsk russia youtube
886	134	watching middle omg
86	203	heavy rain flooding queensland australian brisbane news
1214	209	video meteorite hits russia video impact chelyabinsk
1349	135	killer robot stopped campaigner lt lt surely easy train killer robot pentagon auspol
1310	126	lindsay lohan loses lawsuit pitbull lindsay lohan lost defamation lawsuit filed
884	161	printed medical skull implant blog dprinting dprinter medical
155	160	social media university curriculum hootsuite social media management
893	154	resveratrol help prevent hearing loss
86	203	brisbane resident warned flash flooding heavy rain queensland herald sun brisbane resident
890	123	nasa monster sunspot growing fast solar storm
48	125	argo deserves deserves best director surprised affleck didn nominated
1310	126	rollingstone lindsay lohan loses lawsuit pitbull lindsay lohan lost defamation
1203	170	insane feel real man argo speaks
173	130	lawyer lawyer lawyer
86	203	flood water urge gillard sky news australia sky news flood water urge
1126	214	massachusetts professor protest high stake test highered cc ccchat parccelc
86	203	latest news brisbane resident warned flash flooding heavy rain queensland herald sun
884	161	printed human ear rat cow rage
886	180	en elementary sherlock joan siendo son mujer en sherlock todos sh son una gay
86	203	warning heavy rain flash flooding brisbane prepped feb youtube
1310	126	lindsay lohan loses lawsuit pitbull yahoo music
884	161	researcher printing grow human ears france engineered
893	154	resveratrol grape wine protects deafness alzheimer hope natural
110	121	online education transforming college politician academic debate future higher education
40	177	kidnap french national boko haram faction dreaded boko haram sect saturday denied
86	203	floods australians
1214	209	restoration work meteorite shower chelyabinsk region fulfilled meteorite shower repo
889	128	dopest chris brown type instrumentals check clothing brand
1212	124	housewives star lindsey knickerbocker pleads contest cop punching dui charges daughter
1212	124	housewives star lindsey knickerbocker pleads contest cop punching dui charges
86	203	thousands isolated australian floodwaters sydney afp thousands people australia east coast wer
14	212	kate middleton debuts baby bump cape st
1104	133	smell unbearable michigan woman talk ordeal crippled carnival triumph cruise ship sa detroit
1212	124	post housewives star lindsey knickerbocker pleads contest cop punching dui charges tmz
1291	142	iraq maliki smuggling arm syria assad report
1349	135	robot wrong accountable killer robot stopped campaigner
1224	128	buy america clothing men
886	180	sherlock sherlock
886	180	sherlock
1450	128	urban clothing ti clothing brand akoo blue pelt great jeans popular clothing brand
893	216	reduce type ii diabetes risk sunshine vitamin intake
1454	128	love online clothes shopping god lee regular jean skinny jean
1308	154	red wine red grapes help protect hearing loss cognitive decline
1212	124	housewives star lindsey knickerbocker pleads contest cop punching dui charges daughter
1214	209	harlem shake chelyabinsk meteorite original
238	167	told sequestration isn cutting spending raising tax
680	167	party cut cut cut sequestration ally
127	116	eads thyssenkrupp attacked chinese hacker report currency
127	116	eads thyssenkrupp attacked chinese hacker report business
127	116	eads thyssenkrupp attacked chinese hacker report frankfurt reuters airbus parent eads german st
1075	136	girl novel reading book
889	128	clothes online cry everyday life
889	128	time clothes online cry
889	128	clothes online cry xd
1214	209	video meteorite crash russia video meteor explosion stirred panic
907	189	consult personal injury attorneys san francisco dog bite problems
1203	170	argo real tony mendez hispanic
33	161	printed rocket parts will nasa mars
36	220	bangladesh split violence escalates war crime protest
1214	209	meteor generation wake russia strike
1075	136	read girl easy read nice nick quintessential cheater novel
882	127	hill mccain hagel vote pentagon nomination elections consequence
786	167	speaker boehner pres obama doesn plan avoid sequestration google ll find
33	161	dprint changing article printed rocket parts will nasa mars
893	216	diabetes double person risk dying heart attack
886	180	brit lit sherlock holmes honestly class pointless study author holmes good det
882	127	mccain hagel qualified defense secretary reuters link bio
886	180	doctor sherlock fandom worst
1079	180	free charlie sherlock lost key stephen ward charlie dog sherlock kindle
882	127	mccain hagel qualified defense secretary reuters mccain hagel
1527	118	netanyahu rejecting apology turkey
882	127	republican senator mccain hagel qualified defense secretary washington reuters republican
904	215	yup didn help wasn snow snow blower
786	145	visitor access yellowstone cape cod grand canyon national parks limited looming sequestration
922	144	fuck downton abbey sybil
1454	128	will online shop will online shop will online shop
882	127	news hagel confirmed week defense usa today
680	167	side hoping sequestration blame side sequestration america
5	115	will rogers rogers man kind
127	116	house intel chair mike rogers calls chinese cyber attacks unprecedented
110	121	free online course offered university minnesota spreading mooc good point subject
882	127	gop neocons filibuster hagel egg good pro life born american soldiers
48	195	oscar picks best picture argo best actor daniel day lewis best actress watts best supporting actor robert niro
127	116	house intel chair chinese cyber attack unprecedented
882	127	haaretz senator mccain hagel qualified defense secretary
922	144	finished watching season downton abbey matthew dy mary baby going happy
1460	123	solar flare
886	180	craziest fandom sherlock holmes benedict cumberbatch
48	125	oscar night love ben affleck win best director movie argo brill
1203	170	argo real tony mendez hispanic
886	180	john wanted sherlock random sherlock thought
889	128	pilot woman fashion clothing fashion dress online shop
893	154	resveratrol grape wine protects deafness alzheimer
1086	197	season mad men wait till life
907	223	dogs park dog park
48	195	academy voter love historical movie movies directed actor movies hollywood tonight oscar winner argo
889	128	baby online business selling baby clothes affordable price free shipping midnight tonight
100	158	pulled pork sandwich big basket hush puppy
1224	128	buy america clothing men
891	126	feel moment pitbull ft christina aguilera
172	124	dui ucf sports announcer arrested dui
904	215	talk people snow blower well stock honda single stage stock toro
889	128	going buy clothes online stopping addicted
893	154	resveratrol grape wine protects deafness alzheimer
106	135	autonomous weaponised robot developed amp action decade terminator trouble
893	216	breakfast soft drink promote weight gain type ii diabetes
48	125	don understand ben affleck isn nominated best director
48	195	oscar ready shine argo appears edge best picture unpredictable year
1310	126	goal life featured pitbull song mexican
48	195	oscar ready shine argo appears edge best picture unpredictable year
891	126	nowplaying havana brown ft pitbull night listen
1075	169	worth reading girl held ground cooky gt gt standing girl scouts
48	125	oscars time best actor argo best picture affleck best director thought
786	167	sequestration happen commented condemn pending budget cut spread blame road runner
48	195	great film oscar worthy django argo
48	125	oscars tonight best picture argo lincoln bad ben affleck wasn nominated best director argo
680	167	gop fed sequestration listen don brian wilson
886	180	hmmm sherlock
86	203	thousands isolated second flood month news
893	154	latest health benefit wine folk resveratrol
48	125	love ben affleck disgrace nominated best director
1310	126	lindsay lohan pitbull lawsuit thrown judge
1460	123	solar flare symptoms expert heather
886	180	core sherlock fall ll year sherlock season
127	116	house intel chair mike rogers calls chinese cyber attacks unprecedented yahoo news
48	125	oscars oscars oscars pulling argo sweep tonight ben affleck snubbed best director
886	180	bet sherlock holmes rocked shit elementary school
127	116	calls mount action chinese hack attack reddit
48	125	upset ben afleck oscar snub argo fantastic
48	195	oscars best picture django argo win director wouldn surprised dark thirty director
31	146	lawmaker reject gmo labeling alternative news network colorado house committee voted
48	195	oscars isn argo win
48	125	ben affleck oscar snub argo set win best picture
36	193	bulgarian government quits protests continue trad
786	145	sequester impact states detailed white house reports
172	124	ucf sports announcer arrested dui
104	141	cant wait oz film mila kunis obsession
48	125	ben affleck gettin snubbed looked good gorgeous wife jennifer garner side ben
127	116	calls mount action chinese hack attack calls mounted sunday action bei
605	140	richard iii buried york leicester descendant argue
605	140	richard iii buried york leicester descendant argue
605	140	richard iii buried york leicester descendant argue
605	140	richard iii buried york leicester descendant argue
889	163	bitcoin atm bill mcgonigle writes bought bitcoins bitcoin atm
889	163	bitcoin atm business marketing
48	125	love seth called academy nominating ben affleck oscars
48	125	didn long reference affleck best director snub oscar
48	125	killer start ben affleck robbed
891	126	np feel moment christina aguilera ft pitbull
904	215	hear northeast gettin snow gotta capitalize blower scoop dollar
5	115	help child life hero fred rogers
886	180	benedict cumberbatch better sherlock holmes downey jr tho
48	125	gorgeous wife jennifer garner side ben affleck ready win award best director
48	125	director toss affleck won nominated lee spielberg
1086	197	mad men return spring glory
893	216	type diabetes increase risk bone fracture
48	125	water ben affleck gettin snubbed looked good
1214	209	russia chelyabinsk recovers meteor crash
886	180	oscar update bbc sherlock great holmes robot alien brilliant
891	126	pitbull half naked girl music video
48	125	ben affleck nominated cool oscars
48	125	cough cough cough ben affleck stage best documentary cough robbed best director cough
48	125	oscar ben dis seth bad sport didn nominated best director sense humor
104	222	great amp powerful opening march hidden storyline
48	125	ben affleck nominated best director beard going bring oscar
48	195	trivia argo fourth movie win best picture best director nomination oscars
104	141	going wizard oz movie cuz baby mila bitch lmao
104	141	wanna oz bc james franco mila kunis bye
48	125	dear ben affleck snubbed academy hey didn catherine
48	195	christoph waltz brave win oscars usa today abc waltz brave win oscars
48	195	sandra oscar en oscar oscar argo
48	195	win argo editing oscars
48	195	argo win best editing oscars
48	195	sandra face omfg oscar argo film editing
48	195	william goldenberg winning best film editing argo
48	125	best editing hand hand best director surprisingly affleck nominated directing
48	195	best film editing william goldenberg argo nominated time st win oscars
48	125	pull kanye west best director ben affleck won award nominated oscars oscars
891	126	nowplaying hotel room service remix pitbull feat nicole
48	195	oscar best film editing argo
48	195	oscar making wanna watch argo curiosity wanna watch life pi winning oscar
48	125	worse oscars nomination snub ben affleck best director richard parker best supporting actor
48	195	argo oscar
1203	170	argo cia agent prof tehran produce greatest film oscars
48	195	argo win best adapted screenplay don sign oscars
48	125	argo ben affleck didn nod best director hmmmm oscars
48	195	woohoo argo best adapted screenplay winning lot award winning oscars
48	170	real argo
886	180	bbc sherlock drama base jim moriarty moran
48	125	angry affleck nominated best director oscars
129	192	case people vaccine vaccine
48	195	argo win adapted screenplay win great longform journalism congratulations
48	125	ahead best director affleck heck oscar
48	125	ben affleck nominated best director oscars
48	125	don care ben affleck snubbed
48	125	ben affleck robbed
48	125	best director ang lee ben affleck good choice
48	125	best director ben argo
48	125	beef ang boy ben wasn nominated oscars
48	125	ang lee life pi best director ben affleck robbed oscars
48	125	ben affleck shouldn nominated haven argo movie amazing smh oscars
48	125	rooting ben best director
48	125	oscar best director ben affleck wait forgot nominate
48	125	best director ang lee deserved ben affleck wasn nominated oscars
48	125	ang lee thanking academy nominating ben affleck oscar
1528	203	wet wild weather continue eastern nsw weather
48	195	jennifer lawrence best actress daniel day lewis best actor argo best picture oscars
1203	170	adapted screenplay argo based tony mendez memoir wired story
48	125	huh ang lee won best director affleck nominated full academy coke oscars
48	125	finally award best picture argo big surprise tonight ben affleck director nominee oscars
48	195	argo gonna win
48	195	argo oscars
48	195	oscar best picture argo congratulations
48	195	argo win best picture awarded drunk jack nicholson michelle obama oscars
48	195	oscars argo oscars academyawards oscar
48	125	oscars best picture argo called ben affleck day good
48	195	argo win best picture oscars argo
48	195	month ago argo win best picture oscar argo
48	125	argo win retribution snub ben affleck
48	195	argo best picture oscars happy ben
48	195	argo win best picture oscars
48	195	argo yesssss oscar
48	195	happy argo won oscars
48	195	argo oscars
48	195	best picture argo oscars
48	195	congrats ben affleck argo winning best picture upset oscars
48	195	best motion picture year argo grant heslov ben affleck george clooney oscars
48	195	argo win best picture oscars
48	195	best picture argo oscars
48	125	argo coming affleck amazing director kudos oscar benaffleck
48	195	argo win
48	195	argo fully deserved award bryan ben affleck yeah movie shit
48	195	elizabeth told argo win best picture oscar
48	195	congrats argo congrats ben affleck bestpicture
48	195	oscar argo congrats ben affleck
48	195	knew argo going win ben nominated best director getglue
48	195	best motion picture year argo oscar
48	195	argo win best picture ben affleck didn best director nod oscars
48	195	argo definitely stole oscar tonight
48	125	ben affleck robbed best director oscars
48	195	hey argo won best picture ben affleck wasnt best director hear error academy didnt nominate af
48	195	argo win oscar oscar
48	195	ben affleck stand guy happy career blossom argo great congrats best picture oscars
1203	195	waiting republican rebuttal argo win oscars
48	125	ben affleck oscar george clooney
48	195	argo win best picture ben affleck wasn nominated best director will sense
48	195	argo ben affleck oscar
48	195	best picture oscars argo
48	195	argo win bestpicture oscars ben affleck george clooney film producers
48	195	good film great required oscar argo win best picture oscars
48	125	happy ben affleck best director
48	195	argo win best picture didn nomination best director oscars proof mistake
48	195	oscars spoiler alert daniel day lewis jennifer lawrence argo win top award best actor actress movie
48	195	argo better director oscar
48	195	argo win best picture congratulation ben oscars argo win best picture congratulation ben oscars
48	195	argo win great film oscar
48	125	argo won best picture ben affleck didn nominated best director
48	125	argo ben affleck real bestpicture oscar
48	195	happy argo oscars
48	195	argo won oscar
48	125	congrats argo best flick ben affleck shoulda nominated snubbed oscars
48	195	congrats ben affleck cast argo congrats best picture oscar
48	195	yesss argo win oscars
48	195	argo win best motion picture year hats ben affleck great job directing movie
48	195	well deserved win argo wonderful movie absolutely wonderful oscars
48	195	walter white stage acceptance speech argo win badass oscars
48	195	woah argo win best picture academy awards broadcast
48	195	argo win best picture ben affleck didn nominated best director perfect sense
48	195	winner best picture argo grant heslov ben affleck george clooney oscars
48	195	photoset winner best picture annual academy awards argo
48	125	dude directing snub best picture award argo oscars
48	125	mad ben snubbed directors category
48	195	argo fuck nice win argo best picture congrats ben affleck impressive work argo oscar
48	195	best film award argo congratulations ben affleck oscars
48	195	argo deserved win oscar best picture
48	125	ben missing best director nomination oscars
48	195	argo won oscars best movie predicted academy nominating ben affleck best director
48	195	academy vote argo best picture director best directing nod haha affleck robbed
48	125	bitter director snub argo oscars
48	125	broke ben affleck oscars
1203	195	argo win will people forget gigli oscar
48	125	ben affleck thrilled didn best director oscars
48	195	argo best picture winner grey cup oscar oscars
48	195	yea kinda weird argo win oscar nomination affleck doesn director nom good job good effort
48	125	day ben going win best director oscar argo oscars
48	125	argo fuck academy ben oscar best director oscar
48	195	brilliant argo fuck joke round applause won oscar
48	195	best picture argo oscars argo ben affleck
48	195	best motion picture year oscar winner argo oscar argo
48	195	argo congrats ben affleck
48	195	ben affleck argo win best picture oscars
48	195	surprised great movie argo win best picture oscars
48	195	ironic night watch argo win best picture oscar
48	195	best picture argo directed ben affleck produced george salute oscars
48	195	totally called dad lincoln going win argo glad love ben affleck oscars
48	125	affleck acknowledged spielberg didnt deserve hate ben didnt nominated
48	195	oscars jack nicholson michelle obama best picture argo
48	195	academy awards ben argo win oscar best picture
48	195	respect ben affleck argo oscar
48	195	best picture argo fav congrats oscars
48	195	express happy argo win didn pick affleck didn nom best director
48	195	congratulation ben affleck argo great movie argo el por pel oscars argo
48	195	argo win oscar best picture
48	125	affleck time wasn nominated
48	195	argo win oscar best picture argo
48	195	happy argo win best picture great movie glad amazing story
48	195	argo yey argo win best picture oscar
48	195	academy awards usa best motion picture year winner argo grant heslov ben affleck
48	195	best picture argo grant heslov ben affleck george clooney oscars academyawards
48	195	argo win best picture oscar latino film wasn
48	195	argo winning best picture oscar
48	195	argo winning justice saving private ryan snubbed shakespeare love oscars
48	195	happy argo winning oscar
48	125	oscars ben affleck ve snubbed best director nomination argo fuck
48	195	argo fuck oscars
48	195	argo best picture oscars joke
48	195	argo win best movie ben affleck doesn nomination best director
48	195	best outcome night oscar best picture argo
48	195	guy argo won best picture story american hero saving iran course win
48	195	congrats winner academy awards argo lee lewis lawrence hathaway waltz oscars
48	125	affleck deserved nomination best director understand knocked life oscars
48	195	happy argo won best picture ben affleck fav oscars
48	195	oscars argo named best picture ang lee win best director tech technology
48	195	night life pi win award les mis argo three django lincoln skyfall oscars
48	195	argo winning best picture ben affleck speech michele obama appearance
48	180	sherlock associate lacking oscar wasn bad year sherlock filled
48	195	congrats suite guy ben affleck amp grant heslov winning best picture argo talented amp humble oscar
48	195	oscars argo win best picture argo ben affleck film rescuing americans iranian
48	195	argo named best picture year oscars ben affleck win big three aussies award
48	195	inspiring speech ben affleck best picture win oscar argo
48	195	argo win oscar best film ang lee best director life pi
48	195	michelle obama award top oscar argo kevin
48	195	well ben affleck bravo classy congrats best picture argo nominated director oscars
48	195	photos amazing dress michelle obama announces best picture winner argo oscar
1203	195	island native chris win oscar argo screenplay yup
48	195	oscars william goldenberg win best film argo
48	195	don oscars argo great movie
48	195	wanted les mis win best picture couldn win wanted argo win les mis didn win argo congrats ben
48	195	good affleck argo great surprised won performance voyage mimi oscars
1529	123	solar activity update departing ar emerging ar feb
48	195	argo wins best picture oscars ben affleck
48	195	argo best picture oscars ben affleck iran rescue thriller argo won best picture
48	195	agree knew argo win wasn best
48	195	gw argo wid best film great movie argo win best picture oscars
48	195	oscars result argo wins best picture
48	195	argo win best picture oscar day lewis lawrence earn lead acting honour ottawa citizen argo win
48	195	best picture argo congrats ben affleck oscars
48	195	oscars argo wins best picture life pi dominates full winner list michelle obama announces
48	195	youve argo hollywood save iranian hostage surprisingly hollywood honor oscar
48	195	argo win big prize day lewis set record oscars usa today
86	203	minhaj welfare foundation charity ground pakistan provide flood relief victim tuq
48	195	oscar argo win best picture daniel day lewis jennifer lawrence win top acting honor anne
48	195	current affairs oscar argo best picture oscars
48	195	argo won oscars dont feel good winning better movie
48	170	mt argo win best picture latino cia hero played latino actor tcot
48	195	loved argo good call oscar
48	195	watched love fest hollywood moo obama oscars best picture boring film year argo
48	195	daily beast michelle obama argo best picture surprise video appearance
48	195	oscars argo nabs best picture daniel day lewis win best actor newsday
48	195	argo win best picture academy awards broadcast nation
48	195	love ben affleck love argo love oscars speech cry perfect goodnight
48	195	argo winning best picture surprise stoked jennifer lawrence won
48	125	recap annual academyawards argo win big benaffleck subtly address directing snub oscars
48	195	oscars night academy spreads ben affleck laugh awards
48	195	oscar film argo congrats lt
48	195	argo win oscars best picture knew lt xoxo
48	195	cambridge riot ben affleck argo win best picture oscar sunday night
48	195	latest news argo wins best picture ang lee top director pi wall street journal bnews
48	195	oscars best picture belongs argo life pi help upset lincoln ship life pi
48	195	oscars best picture belongs argo life pi help upset lincoln ship life pi fou
48	195	affleck argo win best picture oscar las vegas sun
786	145	sequester impact states detailed white house reports
48	195	best picture argo varied oscar field hollywood top honor ben affleck argo film
48	195	affleck argo win best picture oscar los angeles ap ben affleck argo film fake movie
1126	214	ny common core mandate tech upgrade monday february cambridge wholesale shift
48	195	argo triumph oscars daniel day lewis score historic best actor win
48	195	argo wins best motion picture oscar
786	145	sequester impact states detailed white house reports
48	195	argo win big prize day lewis set record oscars usa today
48	195	argo wins best picture ang lee top director pi argo best picture prize osc
48	195	affleck argo beat lincoln best picture los angeles ben affleck argo film
48	195	oscar winner argo spark history debate
48	195	oscar winner argo spark history debate
48	195	cia iran drama win oscar night ben affleck tale cia operation free hostage
48	195	argo top oscar nod ben affleck argo film fake movie earned real prize best
48	195	oscar awards life pi clinch award argo best picture
14	212	kate middleton bikini mustique
48	195	argo win best picture shared oscars night
48	125	hold ben affleck true heavy heart mind mature scorpio
1294	209	astronomers calculate orbit chelyabinsk meteorite chelyabinsk meteorite family earth cro
48	195	argo win oscar best picture argo oscar caught fire won toledo
48	195	oscar winners full list argo daniel day lewis jennifer lawrence ang lee
48	195	newsupdate oscars argo life pi win big
48	195	weekly argo win best picture long academy awards director producer
48	195	oscar winners lincoln argo big winners
48	195	best picture argo varied oscar field hollywood top honor ben affleck argo film
48	195	eeuu usa cuba oscar winners daniel day lewis argo amp
48	195	argo surprise win jennifer winning best actress oscars unexpected jessica good
48	195	oscars winners full list winner oscars including argo daniel day lewis
48	125	finished argo ben affleck starring jay amp silent bob academy award winning director boss
48	195	argo directed ben affleck won oscar best picture
48	195	argo wins best picture ang lee top director pi
48	195	warner bros oscar gold sale boost argo los angeles reuters time warner warner
48	195	video ben affleck argo nabs best picture oscars
48	195	ben affleck cried argo acceptance speech ben affleck snubbed best director nod year oscars bu
48	195	argo best picture oscars
48	125	messed nominating ben affleck best director embarrassing hope apologize
1480	181	costa bos donates bonus concordia charity
48	195	argo beat lincoln best picture oscar los angeles reuters iran hostage thrill tweet news
48	195	argo beat lincoln best picture oscar los angeles reuters iran hostage thriller argo won bes
1531	153	pistorius seek easier bail condition news blackberry app
48	195	film dead argo shot best movie oscars
786	145	sequester impact states detailed white house reports
48	195	hahahha won three oscars oscar best movie argo won best movie stupid
48	195	argo win best picture oscars oscars
48	195	argo beat lincoln best picture oscar reuters los angeles feb reuters iran hostage
48	195	top story argo storm oscar victory night surprise los angeles reuters argo stormed best
48	195	best picture argo varied oscar field
48	195	oscars argo life pi win big
48	195	argo beat lincoln best picture oscar
1203	170	bbc news tony mendez real cia spy argo
48	195	hard avoid conclusion iran argo oscar win academy decision political
48	195	stayed watched oscars happy argo won best picture brilliant film day
48	195	well argo best picture award oscars
48	195	iran scoff oscar winning argo tehran iran ap iran state tv dismissed oscar winning film arg
1351	120	argentina dispatch troubled reign queen cristina argentina
48	195	iran scoff oscar winning argo
48	195	oscars argo beat lincoln
48	195	oscars argo wins best film editing ifwt
1075	136	girl novel girl novel gillian flynn author day top buy
48	195	iranian medium criticize oscar win argo
48	195	argo storm oscar victory night surprise chicago tribune
48	195	surprised argo won best picture oscars good great film life pi exceptional area
48	195	argo fuck ben affleck devil
889	128	clever full underwear white yellow buy men fashion online sexy fashion shop
48	170	glad argo won best film woo interesting actual cia artefact
48	195	argo storm oscar victory night surprise chicago tribune san francisco chronicle argo storm
48	195	argo wins best picture ang lee top director pi argo best picture prize osc
1203	195	argo fictional account americans saved tehran breaking canadian embassy
882	127	israel firsters parade chuck hagel nomination
882	127	news israel firsters parade chuck hagel nomination nwo
48	195	day lewis history oscar win daniel day lewis history winning third oscar
1203	170	jimmy carter argo canadians film full credit cia oscars
1203	170	argo ebook antonio mendez matt baglio kindle
48	195	usa affleck unchained argo takes best picture oscar time unchained argo takes best
48	195	oscars best picture belongs argo life pi help upset lincoln ship
48	195	affleck unchained argo takes best picture oscar time tcot
48	195	jennifer lawrence argo daniel day lewis win big academy awards oscars
48	195	congrats ben affleck argo best picture oscars
48	195	happy argo won love ben affleck
1107	217	cardinal collins head vatican select pope news
48	195	argo won best motion picture didn expect oscar
1107	217	pope change church law allows cardinal start conclave early vatican city reuters pope benedict
48	195	jennifer lawrence argo daniel day lewis win big academy awards oscars
1107	217	pope change church law allows cardinal start conclave early vatican city reuters pope benedict
48	195	watch michelle obama cameo oscars announces best picture argo gt
1310	126	madonna facing instagram ban lindsay lohan loses lawsuit pitbull lyric kanye west attack justin track gig
605	140	richard iii ancestor demand york burial daily mail wondering unnamed journalist board
48	195	top stories ben affleck argo wins best picture oscars
127	116	chinese cyber attacks obama enters dangerous confrontation allegiant
48	125	oscar
48	195	video argo best picture day lewis lawrence win acting honor oscars
605	140	richard iii ancestor demand york burial descendant oppose plan bury leicester
1450	128	urban clothing fila footwear brand origin streetwear popular clothing brand
48	195	oscars analysis argo ang lee night big winner michael phillips ben affleck rousing
48	195	lawrence floored best actress win argo daniel day lewis oscars chris ap actress jennifer law
48	195	wasn wrong argo review affleck laughing oscars sense context
48	195	ben affleck wins best picture oscar argo wife jennifer garner marriage work bes
127	116	urged comprehensive action chinese cyberespionage
48	195	best picture argo best director ang lee life pi best supporting actor christoph waltz django unchained best supporting actress ann
48	195	argo won oscar movie year academy film directed ben affleck wasn nominated
48	195	affleck argo win best picture oscar
48	195	argo path dark horse best picture winner oscars hold grudge
86	203	eastern australia hit extreme weather australia thousands people south wales mid north
799	164	lindsey vonn thought crash career
1294	209	astronomers calculate orbit chelyabinsk meteorite gt
48	195	congrats argo winning best picture oscars
48	195	argo best picture oscars houston chronicle review oscars
48	195	argo good movie lincoln best picture washington post blog
799	164	lindsey vonn thought crash career week major knee surgery
1297	181	prosecutor urge trial costa cruise ship rome ap italian prosecutor formally requested
799	164	lindsey vonn thought fall career ender star downhill skier mum tiger woods plan
889	163	bitcoin atm
48	195	ben affleck argo win big oscar prize
48	195	guess argo winning oscar good reason review film
680	167	sen mitch mcconnell amp gop obstruction prevent sequestration ky army base fund cut gt mil
48	195	drama americans hostage iran argo won oscar sunday
36	220	bangladesh split violence escalates war crime protest
889	128	fashion plussizewomen roaman size clothing fashion size woman
89	136	don forget pm sunday will discussing girl
1214	209	downed meteorite chelyabinsk russia ufo explosion latest
48	195	oscars argo jennifer lawrence anne hathaway big oscar winner
48	195	argo producer grant heslov dodged oscars toilet disaster wasn
3	121	post gt colleges will adapt moocs education tech
48	125	ben affleck win best director
48	195	argo producer grant heslov dodged oscars toilet disaster hollywood
48	195	argo producer grant heslov dodged oscars toilet disaster celebs
48	195	argo producer grant heslov dodged oscars toilet disaster wasn
48	195	argo top prize oscars night
55	157	cb kim kardashian bump elton john oscar party terrible
680	167	jack lew sequestration obama sequestration evil obama appoints lew treasury secretary confused
1474	179	animal legal defense fund cruelty alaska sled dogs iditarod
48	195	argo win best picture hate
48	195	best picture argo varied oscar field hollywood top honor ben affleck argo
48	195	oscars argo win best picture hate hollywood longer kind
1203	161	will crazy win printed house race
1294	209	astronomers calculate orbit chelyabinsk meteorite
1533	131	trash dress
48	195	surprise oscars loved michelle obama handed best picture loved argo won best picture ben speaking
48	195	argo life pi win top oscars
786	145	white house releases reports detailing sequester impacts state
40	177	video posted youtube website appears french citizens kidnapped cameroon week
48	195	argo wins affleck canada
1534	131	junk kouture north region vote classy trash dress
786	145	sequester impact states detailed white house reports
882	127	eci ad chuck hagel hill wsj tcot tlot
110	121	mooc completion rates student investment
40	177	video appears french family kidnapped cameroon
889	128	shopping clothing online lazy
48	195	oscars argo win best picture full list winner
127	116	chinese hackers
55	157	kim understand meaning maternity wear
882	127	disaster waiting happen top reasons chuck hagel wrong secretary defense
48	195	spokesperson iran condemned affleck winning night bc argo state violent mob student
155	121	infographic dark side moocs
48	195	oscar opinion life pi seth argo theoscars argo
40	177	video appears french family kidnapped cameroon
884	161	plan send printer moon print brick foster partner moon base
40	177	video claim french family held boko haram man video threatens kill hostage including childr
40	177	video appears french family kidnapped cameroon dakar reuters video appearing
40	177	french child kidnap video
40	177	french child kidnap video news
1353	204	tapped deep amp racial prejudice history justice nation
40	177	french child kidnap video
40	177	breaking france declared war islam bbc news french child kidnapped cameroon video
40	177	news french child kidnap video video published youtube appears todosobretec
40	177	video claim french family held boko haram man video threatens kill hostage including childr
886	180	reblog bbc sherlock fandom
3	121	moocs organized
40	177	bbcnews ticker video french family kidnapped cameroon week posted youtube
48	195	pretty happy oscars winner esp christoph waltz argo
40	177	french child kidnap video video published youtube appears member french
4	204	sotomayor call prosecutor racial profiling drug case
48	195	ben affleck ve ended oscar speech argo fuck
40	177	french hostage nigeria kidnapped boko haram
48	195	iran scoff oscar winning argo tehran iran ap iranian official monday dismissed oscar winning film argo anti
886	180	sherlock holmes cbs crazy
48	195	acting game argo win best picture lawrence day lewis acting prize los angeles ben af
1212	124	housewives star lindsey knickerbocker pleads contest cop punching dui charges
48	195	call hollywood call hollywood ben affleck argo win best picture oscar
48	195	official oscar winning movie critic agree ben affleck amp full throttle
882	127	gop senator obama withdraw hagel nomination
48	195	ben affleck tweets oscar win iranian media slams argo victory haha great
48	195	sense argo win best picture director nominated oscars
600	177	pakis rape kids boko haram claiming hold french family french pm paris reuters edl luton mdl
1474	179	animal legal defense fund cruelty alaska sled dogs iditarod
48	195	grant heslov ben affleck george clooney best picture argo oscar
48	195	iran oscar winning argo weak anti iran
1203	195	waiting arabic version argo hero rescue victim torture prison win oscar
889	128	best online site buy kid clothes
127	116	hacked chinese matter
40	177	islamists threaten kill french kidnapped cameroon dakar reuters gunmen claiming nigeria
922	144	downton abbey wrong amp writer learn
40	177	video appears french child kidnapped cameroon
4	204	sotomayor call prosecutor racial profiling drug case raw story
886	180	photo title cumberbatch sherlock version requested matt smith
55	157	pregnant kim kardashian talks kanye west baby kimye cosmopolitan magazine
40	177	bbc news french child kidnapped cameroon video
786	145	sequester cuts outlined obama white house march deadline looms congress doesn care
48	195	mng hollywood air kiss argo life pi ben affleck argo
40	177	boko haram post video kidnapped french family video appeared youtube monday
786	145	director john jarvis will safety consideration visitor sequester cut fewer worker
48	125	hard ben affleck wave oscar amp lick ball better man ben affleck
40	177	worldnews france ayrault hostages held boko haram bloomberg
1126	214	urgent common core update week al legislature
40	177	france boko haram publish video hostage deutsche welle
896	126	hip hop pitbull dade county shots lil wayne
896	126	pitbull harlem shake freestyle lil wayne diss listen download music
40	177	france boko haram publish video hostage deutsche welle
786	145	sequestration district columbia impact budget cut
1525	135	human rights watch petition robots battle field
893	173	mediterranean diet good statin
1353	204	sonia sotomayor condemns prosecutor racially charged question
40	177	video kidnapped french family youtube
48	195	watch argo fun fact ben affleck actor crush
896	126	pitbull dade county lil wayne diss
896	126	hiphopnews singles pitbull dade county pitbull thing sto
896	126	news pitbull disses lil wayne harlem shake remix dade county
896	126	news singles pitbull dade county pitbull thing hiphop rap
77	158	nc bbq slaw boiled potato hush puppy
896	126	pitbull dade county lil wayne diss
40	177	boko haram post video kidnapped french family youtube
886	180	ich mit elementary und find sherlock er ich mag
4	204	sotomayor call prosecutor racial profiling drug case hope case
896	126	dade county lil wayne diss pitbull
1353	204	sotomayor condemns prosecutor racially charged question
48	195	anti iran propaganda shortsighted history oscar winning film argo life
48	195	anti iran propaganda shortsighted history oscar winning film argo
889	163	startup attempt bring bitcoins real bitcoin atm bitcoin currency exists exc
55	157	pregnant kim kardashian talks kanye west baby kimye cosmopolitan magazine pls
40	177	boko haram post video kidnapped french family youtube
893	216	exercise improves quality life diabetes patient find study
40	177	islamists threaten kill french kidnapped cameroon news
48	195	oscar film hoy argo best picture les miserables anne hathaway best supporting actress
896	126	pitbull disses lil wayne harlem shake remix dade county beef love
882	127	hagel confirmation factor will republicans insist hour break debate final vote
48	195	argo win best picture oscar night
1353	204	sonia sotomayor condemns prosecutor racially charged question
896	126	singles frank ocean eyes sky pitbull
1214	209	meteor meteor daha
1353	204	sonia sotomayor condemns prosecutor racially charged question scotus racism
89	176	book book club will discussing
1107	217	pope candidate cardinal turkson pedophilia white thing
89	136	reading girl sort read feel beach pool
1203	195	argo winning oscar jimmy carter presidency success
1431	192	whooping cough vaccine recommended pregnancy
896	126	pitbull drops lil wayne diss harlem shake instrumental dade county audio
896	126	pitbull drops lil wayne diss harlem shake instrumental dade county audio
1433	175	commentary winter storms names
896	126	check pitbull disses lil wayne harlem shake beat don mess miami ain
893	216	severe type diabetes mellitus beneficial abstract background severe
36	193	europe energy story bulgarian prime minister resigned amid protest painful energy bill
680	167	oops obama claims sequestration will hurt government agency longer exists ignorance
155	121	overview moocs
40	177	france condemns boko haram kidnap video cruelty bound france condemned release vid
48	195	human slavery anti iran propaganda shortsighted history oscar winning film argo freedom
48	195	annual academy awards winners list annual academy award winner announced sund
48	195	argo best picture oscars wasn discussed film facebook
40	177	france ayrault hostages held boko haram businessweek telegraph ifollowback
48	195	oscars tweeted moments include argo win adele performance academy awards sund topnews
1294	209	astronomers calculate orbit origins russian fireball orbit chelyabinsk meteoroid
64	134	marry
40	177	release french citizen release woman boko haram jonathan
1353	204	justice denounces prosecutor racially charged question yahoo news uniteblue
889	128	spring online store
1353	204	sotomayor reprimand prosecutor black amp car bag money red flag drug deal
1203	195	form composer argo team oscar
48	195	finished watching argo amazing movie ben affleck man best picture
889	128	favorite method shopping clothes online store buy
896	126	pitbull dade county lil wayne diss
48	195	argo movies will contend year best picture oscar ben affleck
55	157	kim kardashian reveals plan ka mailonline
40	177	islamists threaten kill french kidnapped cameroon gunmen claiming nigeria boko haram islam
886	180	sherlock sherlock sherlock sherlock sherlock sherlock sherlock sherlock sherlock sherlock sherlock sherlock sherlock sherlock sherlock
1294	209	impresionante flash por el meteorito chelyabinsk
896	126	pitbull aims lil wayne dade county dis
896	126	pitbull aims lil wayne dade county dis exception lil wayne
786	145	green blog national park cuts
146	116	bbc blocked china day reporting chinese hacker
146	116	bbc blocked china day reporting chinese hacker
146	116	suryaray surya bbc blocked china day reporting chinese hacker
48	195	argo fuck ben affleck iran hostage movie worst slate magazine
40	177	boko haram posts video kidnapped french family youtube
902	115	beautiful day neighborhood rogers
1480	181	costa bos donates bonus concordia charity
896	126	commented blog post pitbull dade county lil wayne diss
896	126	pitbull dade lil wayne diss download pitbull dade
48	195	feel argo winning best picture hahahaha face nominating ben affleck director oscars
110	121	university mooc model moving professor lecture online
110	121	university mooc model moving professor lecture online
48	195	argo liberal film response ben oscar ben liberal
48	195	lol people argo shouldn won oscar american dont appreciate significance movie
104	141	oz great powerful mila kunis james franco
896	126	pitbull aims lil wayne dade county dis
48	195	hoffman lol argo win boy oscars
40	177	france condemns boko haram kidnap video cruelty bound jean marc ayrault french prime minister
1460	123	survive solar flare prepping disaster
680	167	stupid pres lying sequestration insists caused republicans
48	195	oscar win argo highlight canada role iran hostage rescue
680	167	amp dead ppl obama admin claims sequestration will affect federal department longer exists
1086	197	mad wrestlemania mad men night
48	195	argo fuck ben affleck iran hostage movie worst slate magazine
4	204	sotomayor hope case scotus
48	195	argo life pi win big oscars
1353	204	sotomayor chides prosecutor racially charged question washington post
799	164	lindsey vonn will compete sochi olympics
1353	204	justice sonia sotomayor slam prosecutor racial remark
1353	204	sotomayor chides prosecutor racially charged question
1126	214	tonight abuzz common core standard will
922	144	downton abbey season spoilers details edith crawley amp tom
48	195	argo great amp deserved win oscar remains best movie argo title
48	195	argo wins best picture oscar powerful message ron
48	195	argo wins best picture oscar check
1353	204	justice sotomayor question attempt substitute racial evidence
1351	120	argentina dispatch troubled reign queen cristina argentina telegraph
1203	170	article archive real tony mendez talk argo follow
1353	204	justice sotomayor reprimand federal prosecutor racial remark hill blog briefing room
1353	204	sotomayor criticizes prosecutor racial remark salt lake tribune sotomayor criticizes
1126	214	tea party common core education standard novel
146	116	bbc blocked china day reporting chinese hacker
896	126	pitbull dade county lil wayne diss
896	126	dade county lil wayne dis pitbull funny pitbull
889	128	kouture shop kouture clothing accessories
40	177	paris figure video released hostage boko haram hostage held nigeria
1308	154	red wine red grapes help protect hearing loss cognitive decline god
896	126	pitbull lil wayne dade county pitbull
886	180	photoset sherlock holmes season start wee comic
896	126	flo rida black pitbull
48	195	argo failure truth argo best picture oscar barack obama winning nobel peace prize
886	180	king things bbc sherlock
889	128	online business clothes shopping
891	126	feel moment pitbull pm
40	177	boko haram release video captured french family internet
786	145	loser proposed spending cut national park note proposed cut
48	195	argo wins big oscar awards
1086	197	mad men
48	195	global showbiz iran disses argo oscar win love banned oz hbo
896	126	pitbull dissed lil wayne hope kill career
896	126	pitbull aims lil wayne dade county dis
188	147	secret commercial winning
889	163	bitcoin atm slashdot bill mcgonigle writes bought bitcoins fir news
110	121	mooc
896	126	wayne bitch pitbull dade county lil wayne diss
48	112	ky derby news road kentucky derby prep picture courier journal
890	123	apod february coronal rain sun
40	177	video french family kidnapped cameroon travelnews cameroon nigeria france
886	180	bet sherlock holmes rocked shit elementary school
896	126	pitbull dropped remix wayne respond pitbull pull nigga
48	195	hostage held american embassy iran hope academy award argo boost effort
886	180	bet sherlock holmes rocked shit elementary school
890	123	coronal rain sun
36	193	bulgarian president summons security council amid political crisis
896	126	pitbull diss lil wayne
48	195	argo win best adapted screenplay oscars started wired well worth read
1537	181	travel prosecutors request charge concordia captain
882	127	senate vote moving ahead hagel nod deeply divided senate moving vote chicago news
48	195	argo life pi win top oscars
884	161	ll print house build day
48	195	eureka argo lawrence win slow oscar night
40	177	boko haram releases video kidnapped french family cameroon jtf claimed rescued
896	126	pitbull dissed wayne hahaha ii hope wayne murder sucha joke rapper wayne joke
55	157	videos kim kardashian big booty dash elton john oscar party
1214	209	russia meteor origin
922	144	downton abbey introduce black character series hopefully human opening credit
40	177	today top stories links boko haram releases video kidnapped french
889	128	handbags amidra online clothing store
48	195	oscars tweeted moments include argo win adele performance adele oscar followback
889	128	handbags amidra online clothing store
889	128	buy women fashion clothing stuff online amidra online clothing store
40	177	video french family boko haram youtube
11	142	official iran making flight weapon syria routine referred milk
48	125	tragic justice ben affleck best director snub loss
40	177	alleged boko haram group attempt swap kidnapped french family
889	128	online shopping fun designer clothing
10	147	video fabulous victoria secret tv commercial spring
127	116	chinese apt attack work company developed
127	116	india congress urged probe chinese cyberspying washington congress conduct
1126	214	oppose common core standard ravitch education historian diane ravitch leading voice
882	127	senate set confirm hagel tuesday wednesday chuck hagel confirmation saga
40	177	video boko haram kidnapping french family
1214	209	chelyabinsk meteor fever bbc news
48	195	argo oscar
1126	214	rotten common core diane ravitch nation premier education historian
3	121	ms quality instructional design moocs john mak learner weblog february
132	159	circular economy
886	180	hello sherlock
1353	204	obama appointment sonia sotomayor condemns prosecutor racially charged question
882	127	senators vote hagel nomination today
40	177	france will negotiate boko haram
1307	177	french government reject negotiation offer boko haram
1214	209	chelyabinsk meteor meteor russians don video
890	123	video playlist nasa sdo fiery looping rain sun
890	123	gostei um deo fiery looping rain sun
1214	209	al meteorite chelyabinsk russia
48	195	ben affleck filled emotion accepting best picture award argo sunday night acad
48	195	oscar awards winner list argo bag best picture award
882	127	sweet blog hagel defense secretary nomination senate today
1454	128	online clothes shopping help will cute summer hurryup
886	180	small bbc sherlock fandom reblog army
1214	209	scientists trace origin destructive russia meteor chelyabinsk meteor group earth cro
889	128	urban clothing day suffering clothing style panther tee
155	160	pro amp con social medium education infographic edtech times edtech edchat
680	167	sequestration realized gov amp financial market amp business sequestration insurance option future
48	195	oscars argo lincoln pick golden pls
889	128	check clothing company online store
1214	209	meteor chelyabinsk threat news astronomers identified
1203	170	argo isn saving people professional historically inaccurate redemption tony mendez
1084	129	angry birds toons rovio cartoon series coming browser march tech texas
1353	204	supreme court justice rip prosecutor
1084	129	suryaray surya suryaray surya angry birds toons rovio cartoon series
1084	129	angry birds toons rovio cartoon series coming browser march
916	201	listening dr baker ar native lecture ground breaking particle physic higgs boson
1084	129	rovio cartoon web series angry birds toons march month
1214	209	scientists figure russia meteor origin
1214	209	scientists figure russia meteor origin
680	167	omg doom gloom painted democrats sequestration small amount cut grown men whining
1084	129	news angry birds toons rovio cartoon series coming browser march
1075	119	will save honey bee eu mulls pesticide ban set approve alex staff write
82	225	barbara walters returning abc view coming monday suffering chicken pox
77	158	cheeseburger chicken nugget cajun fry onion ring hush puppy corn dog huge sweet tea oreo shake
48	195	argo iran hostage crisis film fact
896	126	pitbull dis
142	145	interesting post sequester impact daily life finance
882	127	senate vote debate hagel nomination vote technically time
1126	214	oppose common core standard ravitch powerful edchat
1084	129	angry birds web cartoon series coming march
1084	129	angry birds web cartoon series coming march
155	160	law schools making better social media teaching tool education law
891	126	np pitbull feel moment feat christina aguilera
1084	129	angry birds web cartoon series coming march angry birds will continue quest appear
1224	128	buy america clothing men
882	127	republicans cave blocking hagel nomination point
1084	129	tech angry birds web cartoon series coming march onlireeks
82	225	barbara walters return view
896	126	pitbull dade county lil wayne diss pitbull dade county lil wayne diss
882	127	glad finally cloture hagel man obvious cloture hagel
891	126	nowplaying pitbull feat ne yo afrojack amp amp nayer nowplaying radio
1214	209	scientists discover russian meteor origin week meteor exploded russia
82	225	barbara walters returning view march bout chickenpox radio
48	195	iranian news agency call argo anti iran
882	127	breaking news chuck hagel garner required cloture vote senate clearing nomination secretary defense
882	127	senate break hagel filibuster clear nomination vote tuesday gop filibuster
82	225	barbara walters returning view monday
89	224	dark liquidity tracker released today second largest dark pool
882	127	washington ap senate vote move ahead chuck hagel pentagon nomination clearing confirmation
1433	175	winter storms names
1353	204	sotomayor rip texas prosecutor racially charged remark
882	127	breaking senate defeats republican filibuster hagel nomination
922	144	downton abbey black character jack ross
882	127	hagel nomination stay alive
882	127	hagel nomination stay alive
882	127	hagel nomination stay alive
882	127	hagel clear filibuster hurdle set confirmation
882	127	senate clear vote pentagon nominee hagel washington reuters senate cleared tue
1353	204	sotomayor rip prosecutor racially charged remark progressive appointment
241	206	gangs bombing well knitting gang yarn bombing check story
882	127	good noodle voted cloture hagel nomination winning
1294	209	preliminary reconstruction orbit chelyabinsk meteoroid russianmeteor
882	127	senate expected confirm hagel pentagon chief news
48	195	attention argo mashup oscar worthy
48	195	argo mashup oscar worthy
48	195	argo mashup oscar worthy
48	195	argo mashup oscar worthy argo oscar best
1310	126	lindsay lohan loses publicity rights claim pitbull song lyrics lohan perez
922	144	downton abbey adding black guy downton abbey black
48	195	argo mashup
82	225	pr barbara walters return tv view week
882	127	senate hagel filibuster moving defense pick confirmation time
882	127	global news senate clear hagel confirmation
1431	192	educated generation devastation vaccine disease prior vaccine
902	115	fred rogers flash mob beautiful day neighborhood
882	127	senate clear hagel confirmation vote
1407	206	diy yarn add charm house realized yarn extremely gr
882	127	republicans senate voted tuesday debate amp move forward chuck hagel nomination
1353	204	justice sotomayor slams racist texas attorney alternet
48	195	mashup argo
882	127	hagel survives filibuster big roadblock defense post
882	127	senate hagel filibuster moving defense pick confirmation
882	127	republicans filibuster clearing chuck hagel confirmation defense secretary point
886	180	sherlock
886	180	sherlock
86	203	minhaj welfare foundation charity ground pakistan provide flood relief victim tuq rwlp mar pakistan
886	134	middle
1126	214	fatal flaw common core
1084	129	branding level angry birds web cartoon series coming march
1084	129	angry birds toons animated series premiering month
1224	128	buy america clothing men
1084	129	daily dose google sign angry birds toons
922	144	series downton abbey storyline downtonabbey
127	116	cartoon slideshow chinese computer hacking hopefully don hacked
882	127	senate clears hagel vote
1084	129	angry birds cartoon premiere month episode angry birds toon series will bow march rovio website
1084	129	angry birds cartoon premiere month episode angry birds toon series will bow march
258	166	md gaming news hollywood casino perryville hope launch table game week march poker table crap bj
896	126	pitbull lil wayne harlem shake diss track
786	145	sequester national parks american forests cut foreign aid park
1470	117	normal mark peep funniest
896	126	pitbull disses lil wayne dade county track
882	127	boston herald obama withdraw hagel
40	177	boko haram release video french family kidnapped cameroon daily times nigeria bokoharam
886	180	sherlock holmes liverpool demon issue review sherlock holmes liverpool demon issue
1353	204	sotomayor raise race problem supreme ct latino latism
48	195	ben affleck shaved beard winning oscar hmmm oscar winning performance
1084	129	video angry birds toons brand cartoon series premiering march amp
882	127	senate confirmed chuck hagel secretary defense
799	164	lindsey vonn vows ready winter olympics
882	127	breaking news senate confirms chuck hagel defense secretary
882	127	breaking news senate confirmed chuck hagel defense secretary
886	180	overheard friend sherlock fandom scare sherlock fandom scare sherlock fandom
922	211	video downton abbey season spoilers black cast member lady mary
882	127	breaking news senate confirms chuck hagel defense secretary
142	163	dollar thin air bitcoin turn approach finance
882	127	chuck hagel confirmed defense secretary senate washington ap senate voted confirm chu
882	127	senate chuck hagel defense secretary
882	127	senate confirmed chuck hagel defense secretary chuck brother tore business plan hagel brothers
886	180	el sherlock sherlock el elementary con el sherlock aunque nueva
882	127	hagel confirmed defense secretary democrats called hagel qualified lead armed force
922	211	updated downton abbey season spoilers
882	127	breaking senate confirms chuck hagel secretary defense thinkprogress
896	126	flo rida ft pitbull turn
31	200	parliamentary select committee recommended bill passed law
1353	204	justice sonia sotomayor explains class better
1075	136	girl novel gillian flynn price
886	180	sherlock
1099	122	penny launch strip search reality kickstarter ad free
1084	129	angry birds cartoon premiere month
891	126	pitbull performs don party
886	180	elementary sherlock holmes en eeuu con una watson si conan doyle serie
0	192	vt health dept whooping cough vermont health department number whooping
882	127	news chuck hagel confirmed defence secretary senate confirmation week republicans
886	180	sherlock doctor elementary obsessed
1075	136	star girl gillian flynn
55	157	pregnant kim kardashian hits gym best baby bump photos admit
882	127	chuck hagel confirmed thing dumb secretary defense update roll call carney
31	146	gmo labeling mandatory india
1535	157	pics kardashians work room
882	127	senate confirms hagel defense secretary senate confirms hagel defense secretary
1075	169	girl scout cooky turn honey boo boo mom
1084	129	rovio announces angry birds toons animated series debuts march video
882	127	defense secretary chuck hagel seconds chuck hagel confirmed america secretary
882	127	political fight hagel confirmed defense secretary chuck hagel rocky path
882	127	chuck hagel confirmed defence secretary republicans nomination
882	127	defense secretary chuck hagel seconds chuck hagel confirmed america secr
882	127	sen rand paul republican senator vote chuck hagel defense secretary sense
886	180	sherlock holmes
882	127	senate approves hagel secretary defense reuters abc approves hagel secretary
882	127	senate vote hagel voted lift filibuster well join democrat party cont
922	144	hope edith amp donald glover mt downton abbey diverse adding black man
1310	126	lindsay lohan loses publicity rights claim pitbull song lyrics lohan perez
886	180	sherlock
258	166	maryland live casino set debut blackjack crap table game april
1126	214	survey find deep well concern teacher readiness teach common core
55	157	kim kardashian perfect maternity jeans kim kardashian leaf tracy anderson gym
1084	129	angry birds toons upcoming animated web series rovio
1126	214	support common core standards ccss
181	173	niacin statin combo side effects heart patients tuesday feb healthday news combining
882	127	senate confirms hagel secretary defense senate voted confirm chuck dispatch politics
241	124	bobby brown prison bound third dui arrest gossip
922	144	downton abbey set introduce black character details
893	216	stress linked early death published journal diabetic medicine permanent stress
48	195	oscars michelle obama announcing best film argo academy awards
882	127	hagel confirmed defense secretary deeply divided senate voted tuesday confirm republican chuck
1084	129	cartoon series coming march
786	145	national park service preparing sequestration cut
893	216	meta analysis demonstrates benefits low carb diet type diabetes
904	215	wouldn buy snow blower haven shovel
48	195	real argo hostage responds big oscars win facebook day political thriller argo
889	128	pictures clothes online amp gauge amp band original
890	123	coronal rain sun
1524	134	robert abc hot cleveland
904	215	god snow blower
48	195	sm real argo hostage responds big oscars win facebook socialmedia
241	124	bobby brown jail day dui case
82	225	barbara walters will return view month cinema cinema walters will return
48	195	real argo hostage responds big oscars win facebook day political thriller social
889	128	online store skin care sun care accessory cloth dress shoe amp import
882	127	senator bruising battle nebraska senator chuck hagel confirmed secretary defense
882	127	senator bruising battle nebraska senator chuck hagel confirmed secretary defense
882	127	bravo senate republicans ethic confirmation senate clear path final hagel vote
882	127	senator bruising battle nebraska senator chuck hagel confirmed secretary defense
882	127	defense secretary chuck hagel seconds chuck hagel confirmed america secreta business
882	127	senate confirms pentagon chief chuck hagel senate confirms chuck hagel defense secretary
680	167	sequestration will gop opposition auto bailout potus small brain amp gop
241	124	bobby brown jail true bobby brown going jail brown sentenced day
886	134	abc
241	124	bobby brown sentenced jail dui bobby brown ordered spend day jail
904	215	reminds snow blower colorado summer
70	181	costa concordia victim jurisdiction victory florida
48	195	real argo hostage responds big oscars win facebook
48	195	real argo hostage responds big oscars win facebook day political
48	195	mashable real argo hostage responds big oscars win facebook
882	127	nomination fight ends senate confirms hagel defense secretary fox news
25	217	dr talk friendship papal candidate cnn
1470	117	night crowd peep tastic easter recipes giveaway raffle coupon
916	201	interesting higgs mass signal universe explosive demise
48	195	post real argo hostage responds big oscars win facebook
86	203	minhaj welfare foundation charity ground pakistan provide flood relief victim tuq rwlp mar pakistan
89	176	jim crow book club meeting tonight best inspiring
896	126	beef alert pitbull dade county harlem shake remix lil wayne diss pitbull latest mia
922	144	downton abbey add black character season
882	127	fox news breaking news senate confirms hagel defense secretary breaking news senate cont
1084	129	gostei um deo birds toons brand cartoon series premiering march amp
241	124	bobby brown sentenced days jail dui bobby brown los angeles city attorney
891	126	pitbull making music
241	124	read bobby brown sentenced days jail drunk driving case
48	195	real argo hostage responds big oscars win facebook
110	121	big mooc coursera moves closer academic acceptance
904	215	don entire snow storm snow removal neighbor snowblower wouldn smoke blue exhaust
1084	129	angry birds toons tv series launch march rovio wildly popular game animated television se
1353	204	federal prosecutors racial bias teamfollowback
882	127	silver chuck hagel defense secretary confirmed fewer vote uniteblue
1084	129	angry birds toons tv series launch march rovio wildly popular game animated tech news
1084	129	angry birds toons tv series launch march
891	126	videos pitbull vevocertified full interview videos pitbull vevocertified full interview
241	124	bobby brown sentenced day jail
241	124	bobby brown sentenced day jail drink driving
241	124	bobby brown sentenced days jail dui exclusive bobby brown sentenced day ja
241	124	bobby brown sentenced days jail dui los angeles bobby brown sentenced day
902	115	year ago today february fred rogers rogers neighborhood died
210	120	argentina head appeal court bond fight reuters argentina will seek wednesday
1084	129	angry birds toons tv series game launch march
48	195	ben affleck accepting best picture award film argo canada oscars argo
210	120	argentina head appeal court bond fight york reuters argentina will seek wednesday
1084	129	angry birds toons brand best online videos
100	158	recipe moms hush puppies
889	128	online clothes accessory amp shoe idk wanna
1084	129	milk bird rovio release angry birds cartoon series
1084	129	angry birds toons series crash land weekend march bit expected rovio
922	144	downton move black character love interest mary
1203	170	funny thing argo brown tony latino multi racism hahah
896	126	pitbull dissed lil wayne miami bet lil wayne doesn fire
1214	209	chelyabinsk meteor separating fact fiction
1530	209	info update meteor rusia dari asteroid apollo
889	128	fall clothes online size lt
48	195	well movie argo won oscar boy ben
882	127	senate approves chuck hagel obama secretary defense
882	127	popular news rand paul voted confirm chuck hagel defense secretary tfb goo
882	127	mccain corker graham voted cloture chuck hagel nomination medium claim hearing bad day tcot
173	130	lawyer sign pulled sheriff deputy smarter funny
886	180	star trek original series andy bbc robin hood bbc sherlock holmes
48	195	funny argo mashup oscar worthy
40	177	won negotiate boko haram france read
1214	209	meteorite explosion russia chelyabinsk asteroid expected pas close earth youtube
1454	128	disadvantages buying clothes internet
891	126	listen guy pitbull releasing song ve chance video thing
1540	217	papabile day men pope national catholic reporter
1084	129	indian suryaray angry birds toons animated cartoon series premiere march angry indian
896	126	pitbull disses lil wayne comments miami heat listen pitbull released
23	120	amp argentina ny court showdown default debt buenos aires argentina ap judgment day approaching
1541	111	hundreds drawing water permit allow records water permit holder minnesota
1084	129	omg omg angrybirds cartoon
904	215	feel bad gotta shovel snow lmfao nigga better bos invest snow blower
181	173	bloomberg merck raises risk muscle pain study report thrive study today
127	116	intellectual property attack secret chinese military unit
48	119	mt bee doc network partner honeybee pathology chemistry genetics
891	126	nowplaying hope meet pitbull feat chris brown
882	127	slide chuck hagel road department defense finally senator chuck hagel conf
23	120	argentina shadow imf global crisis debt crisis imf tyranny
882	127	chuck hagel confirm secretary defence senator vote filibuster
904	215	sell ariens ariens track st cc stage snow blower
241	124	bobby brown sentenced prison third dui arrest hollywood gossip
893	216	trial men women type diabetes
882	127	senate confirms chuck hagel defense secretary brutal nomination fight gop mailonline
1310	126	fuck pitbull dead stupid clean fuckin mexican retired thug rapper eating bitch
241	124	bobby brown sentenced prison third dui arrest hollywood gossip
104	141	michelle williams pose mila kunis oz photocall emerges split fr
1084	129	angry birds toons brand cartoon series premiering march amp web series angrybirds
1099	122	trial hard fought kickstarter indie developer mike power kickstarter
896	126	pitbull dis wayne
904	215	driveway isn shoveled live main street nasty slush snow blower
31	134	help support raise childhood cancer tweeting
241	124	bbc news bobby brown receives day jail sentence
55	157	kim maternity wear feel kim kardashian revealed feel
55	157	buzzfeed kim kardashian perfect maternity jeans
896	126	lil wayne responds pitbull diss
680	167	funny people sequestration will hurt military community election gop agreed potus gop doesn
896	126	news lil wayne responds pitbull harlem shake diss lil wayne twitter address pitbull
896	126	lmao wayne sad pitbulls song well don miami heat
896	126	news lil reaction pitbull
884	161	amazing thing printed car demand printing facility don factory
1214	209	scientists trace origin destructive russia meteor chelyabinsk meteor group meteor sky
1099	122	jamie kickstarter project kickstarter dot crowd funding website watch video
241	124	livewire bobby brown sentenced days jail dui bobby brown landed trouble livewirerecords
904	215	hope snow blower work wonder snow clean great don feel sick
904	215	stupid snow blower broke shoveled real woman
891	126	chris brown ft pitbull
904	215	dog hope man dnt wake baby wit loud snow blower
1214	209	scientists figured russian meteor february meteor shook russia
904	215	toro electric power curve snow blower shipped woot
241	124	bobby brown sentenced dui charge bobby brown sentenced yesterday day jail pleading
1203	170	argo cia agent hero maryland knoxville experience academy awards tony
891	126	feel moment ft christina aguilera pitbull
82	225	gossip news barbara walters set return view monday juice gt
891	126	lol retweeted morning pitbull rapper
241	124	bobby brown jail drink driving jailed news hot business
241	124	bobby brown sentenced days jail dui charge
104	222	oz great powerful coming day left opens thursday march ticket
48	195	avid argo oscar accounting issues
904	215	start shoveling driveway neighbor min cuz snow blower shovel
886	180	sherlock holmes
889	128	urban clothing day suffering clothing style panther tee
241	124	musicnews bobby brown days jail dui
48	170	movies life mendez return achieving oscar glory news post online
896	126	lil wayne pitbull disses
1203	195	cia agent inspired argo amazed oscar win
922	144	downton abbey multi ethnic adding black character season
31	146	colorado house reject gmo labelling law
241	124	bobby brown sentenced day jail probation aa
241	124	bobby brown sentenced days dui
904	215	definitely snow blower won ck snowblower snowblower will
0	130	cant find lawyer law find lawyer judge
882	127	rand paul voted confirm chuck hagel defense secretary ticket yahoo news
896	126	lil wayne responds pitbull diss track
904	215	awesome neighbour snow blower play
893	216	hba tests diabetes cases cure diabetes blogging diabetes
1526	193	bulgarians rally snubbed state aid earthquake
896	126	pitbull dissed wayne miami heat
904	115	lived pittsburgh kid rogers kid television life
48	195	extra credit movie won oscar best movie heck supposed argo
680	167	average people fed chairman sequestration stupid wouldn
1539	122	iphone application simple application allow people
82	225	entertainment news barbara walters returns view monday fashion
891	126	nowplaying vevocertified pt pitbull superfans pitbull dale
886	180	play testament sherlock holmes man best friend
904	215	side note snow outta order god man bought snow blower life
89	176	love year book club book
1084	129	angry birds animated series coming screen ve mobile gam
904	215	goodness snow blower
1203	170	argo based story latino mendez character played ben affleck
241	124	ii guess surprise bobby brown trouble pleading contest dui sentenced jail gt gt gt
902	115	mt year ago today fred rogers died couple letter confirm
902	115	greatest gift gift honest mister rogers year today
886	180	sherlock bbc website science deduction dan personal blog dr john watson
902	115	set rogers neighborhood jealous
904	215	check safe snow removal head shovel snow blower tow
902	115	clips mister rogers
40	177	hostage video reveals nigeria boko haram
241	124	entertainment news bobby brown ordered jail dui singer bobby brown headed jail ne check
886	180	book existed book sherlock holmes
110	121	prefer idea personalized training experienced combined moocs hybrid moocs
1353	204	moment justice sonia sotomayor slam texas prosecutor racial remark los angeles times
1126	214	support common core standards
904	215	shoveled huge snow blower
902	216	optimism diabetes david optimistic people live year longer average
896	126	lil wayne responds pitbull diss damn pitbull bro thought kool
882	127	lindsey graham set historic precedent obstruction filibustering obama cabinet nominee hagel
241	124	bobby brown sentenced day jail dui
1359	206	knitting needle mesa arts center hosting yarn bombing festival creativity
891	126	pitbull
891	126	don consider pitbull rapper terrible
922	144	downton abbey adds color cast isn
1086	197	month will return game thrones mad men breaking bad arrested development march madness
173	130	difference lawyer hooker hooker will fucking die
258	166	maryland live table games april cbs local
104	141	gossip michelle williams amp mila kunis oz great amp powerful moscow photo call
5	115	don thought moody late great rogers style icon
1126	214	teachers unprepared common core ccss
882	127	waiting answer hagel
896	126	news lil wayne replies pitbull harlem shake diss pitbull responds
262	152	iceland denies aid fbi wikileaks investigation
106	189	sustained dog walking injury murdo giant lab crashed knee speed
241	124	bobby brown sentenced day year second dui mom
77	158	hushpuppy chicken wrap cookout
680	167	blame sequestration solely pres obama republicans democrats ignorant combination feel fmr worker
36	220	latest protester occupying shahbag slogan vowing resist strike called jamaat today
1532	112	kentucky derby rankings feb kentucky derby will time
104	141	mila kunis dazzle purple gown russian oz premiere michelle williams smile showbiz
886	180	ny episode av elementary sherlock holmes er en tv elementary
55	157	grab press wrote post video kim kardashian blogs maternity jeans kim
904	115	year ago pittsburgh lost nicest neighbor rogers
0	173	lipitor pharmaceutical treatment high cholesterol health
155	160	interesting article social media higher education pros cons impact thoughts
1075	169	honey boo boo facebook sell cookies
1075	169	honey boo boo facebook sell cookies toddlers tiaras star selling girl scout cooky
1075	169	honey boo boo facebook sell cookies toddlers tiaras star selling girl scout cooky
1075	169	honey boo boo facebook sell cookies
1538	126	caught pitbull
1107	217	pope farewell attention shift conclave
1084	129	angry birds tv cartoon launch march
902	115	love today post fred rogers amazing human
896	126	lil wayne pitbull honestly lame couldn
1075	169	nice blog honey boo boo facebook sell cookies suryaray indian
532	175	storm doesn rocky nemo
680	163	bitcoins hats future currency idea channel pbs
893	216	sugar global explosion type diabetes study find guardian
884	161	photo urbee pound printed car
55	157	fixing kim kardashian awkward maternity style maternity fashion post time favorite
882	127	hagel swears defense chief bitter fight chuck hagel secretary defense
1126	214	common core surprised parent sending homework ve heard parent complaining
3	121	hey john written cracking post moocs money comment
1075	169	honey boo boo best facebook ad http honey boo boo best facebook ad tb
142	203	pm flood work plan mine daily telegraph pm flood work plan mine
889	128	sister told buy clothes online turn good day
258	166	maryland live table games april latism
1075	169	honey boo boo best facebook ad
896	126	remember pitbull rapper lil wayne
882	127	happened didn happen year ago excuse repeat hagel gop filibustered gop
882	127	local regional news senate confirms hagel defense secretary senate voted confirm chuck hagel
891	126	nowplaying vevocertified pt pitbull superfans pitbull dale
104	141	mila kunis dazzle purple gown russian oz premiere michelle williams smile break
884	161	printing general aviation
884	161	printed car printing verge going mainstream man
884	161	printed car gadgets
886	180	video sherlock bbc meets metal
882	127	ccot rand paul lame excuse voting hagel tlot tcot teaparty
884	161	printed car
884	161	printed car printing verge going mainstream gadget
1075	169	honey boo boo facebook sell cookies
884	161	suryaray surya suryaray surya printed car
55	157	gossip celebritynews kim kardashian mommy blog perfect maternity jeans kknews
884	161	printed car
884	161	printed car printing verge going
886	134	nelson middle
1214	209	meteor hit russia week count lolol
893	216	top diabetes news quantity sugar food supply linked diabetes rate researcher pls
886	134	heck family getglue abc
1214	209	meteor blast resonated earth meteor exploded steppe southwestern russia
893	119	study ban pesticide clothianidin help save honey bee
1214	209	meteor blast resonated earth meteor exploded steppe southwestern russia
55	157	maternity jean kim feel
86	203	teamfollowback announces flood relief ti
1126	214	support common core standards education edchat tctot stopcommoncore
155	160	ve quoted storify story chat social media classroom
10	147	victoria secret commercial
893	216	quantity sugar food supply linked diabetes rate researcher
127	116	overseas hacker nab tb data daily report wave cyberattacks
1214	209	studying russian meteor blast expert set asteroid blog
886	134	sweet sour awww poor girl getglue abc
1214	209	video uk ufo russian meteor
1075	169	honey boo boo facebook sell girl scout cooky honey boo boo cookie selling girl scout badge
1099	122	tolerance project counter protest documentary ash kickstarter
893	216	sugar global explosion type diabetes researcher claim play uniquely damaging
896	126	pitbull call wayne bye
86	203	supply fear flood isolated qld
1543	203	motorist rescued river peak stranded motorist rescued floodwaters
891	126	music pitbull listens pitbull
142	163	bitcoin virtual currency stage epic comeback hit time high
33	161	start big printed car
1075	136	star girl gillian flynn
896	126	lil wayne responds pitbull diss magazine
86	203	prime minister committed rebuilding queensland latest flood
891	126	nowplaying pitbull
142	163	bitcoin virtual currency hit record high exchange deal vc seo
142	163	bitcoin virtual currency hit record high exchange deal vc funding bank partner
1361	161	printed robotic bat wing hold possibility small aircraft dig
142	163	bitcoin virtual currency hit record high exchange deal
104	222	mila kunis james franco amp michelle williams moscow premiere oz great powerful
55	157	kim kardashian mommy blog perfect maternity jeans kim kardashian mommy blog perfect mate
142	163	bitcoin virtual currency hit record high exchange deal
890	123	blazing arc rains fire sun magnetic solar flare loop video
1214	209	russian meteor origin size pinned yahoo news russianmeteor
886	134	feel amazing watch best tv amp blessed themiddle
893	216	high incidence induced hospital diabetes practice endo
893	216	sugar global explosion type diabetes study find news carbs
889	128	ugh hate ordering clothes online forever
5	171	fictional character ron weasley fact soul mate fake birthday fake
1214	209	russian meteor produced sonic wave meteorite exploded russia low
77	126	mouth thought pitbull horrible speaker lol rapper
902	115	ten year ago fred rogers died greatest people earth
907	223	craig castle welsh dog friendly amp dog swimming pool plenty lead space play
1203	195	tony mendez argo hero returns maryland oscar win
886	180	high quality sherlock holmes volume tv classics movie sherlock holmes volume tv classics movie
104	141	james franco mila kunis michelle williams attend oz great powerful european premiere london mila
48	195	video playlist argo wins best picture oscar awards
173	130	difference lawyer boxing referee boxing referee doesn paid longer fight
127	116	chinese apt attack work company developed
1086	197	game thrones returning march mad men april don work will
1523	128	refuse incredible range incredible prices
886	180	time ve watching sherlock blind banker sherlock
48	195	ben affleck talk writing argo
891	126	fun song play np nowplaying feel moment pitbull christina aguilera
1450	128	urban clothing fila footwear brand origin streetwear popular clothing brand
181	173	niacin statin combination tied skin muscle side pharma nh fda
1353	204	justice sotomayor texas prosecutor racial prejudice
1214	209	chelyabinsk meteor compilation btw russian colleague find annoying hard people sw
1107	217	benedict cracking religion conclave gathering replace pope benedict xvi resigns today
14	212	kate middleton baby bump visit grimsby week pregnant kate middleton will
1544	167	sequestration loom will hurt feel real cbs news
110	121	futurelearn amp mlearning mooc platform approach elearning edtech
1545	121	lane quoting donald clark moocs shouldn failure factory
40	177	kidnapped french family army wouldn react boko haram video
89	176	book club tonight submission author will join march live chat
891	126	fun song np nowplaying feel moment pitbull christina aguilera
1353	204	scalia justice league love kagan sotomayor
48	195	oscar michelle obama introduces argo winner best picture oscars
110	121	class ivy league school free moocs
891	126	pitbull christina aguilera
1084	129	angry birds toons set debut march total
1075	169	gist honey boo boo facebook sell girl scout cookies honey boo boo cookie
1084	129	angry birds amp transition social gaming entertainment video
1107	217	york archbishop american cardinal tim dolan chance great pope odds
48	195	congrats ben affleck film oscar winner argo oscar
1361	161	printed robotic bat wing inspire design small aircraft
1084	129	march angry birds series will arrive
1084	129	angry birds toons brand cartoon series premiering march amp
1099	122	documentary series street art culture kickstarter
786	145	sequestration cuts hit marin meals public housing national parks
896	126	lil wayne dis pitbull terrible
36	193	practice latest bulgarian protest inspiration protester
893	216	sugar global rise type diabetes study find connection independent obesity researcher
48	195	cultural currently showing best film missed oscar winner argo head today
104	141	mila kunis interview disneyozevent spoiler alert ve relationship
104	141	thought rachel weisz going wicked witch west mila wait
1107	217	will replace pope benedict xvi love money root evil bible
1407	206	asked salon hair yarn braided typically yarn
896	126	hiphopnews lil wayne doesn pitbull kool diss track
884	161	time upgrade printer printed car strong steel half weight nearing production wired uk
1126	214	post common core state standards ccss commoncore
889	163	time high bitcoin currency online currency bitcoin reached time high price
889	163	time high bitcoin currency online currency bitcoin reached time high price
48	125	understand affleck didn nomination won bp
31	146	sen introduce gmo food labeling bill mn
889	163	time high bitcoin currency
889	163	time high bitcoin currency
886	180	movie didn bbc sherlock better benedict martin
904	215	snowblower path backyard massive snow pile
1075	169	honey boo boo child alana thompson selling girl scout cookies facebook ain gonna sell girl
89	176	sixth form book group meet monday discus people meet heaven keen picked book
155	160	goal school global help student connect facebook educational tool
904	215	snow blower yard clear spot lmfao
600	162	china appropriate response dprk test china support united nations making appropriate
31	146	connecticut label gmos democracy labelgmos
891	126	havana brown night pitbull nowplaying
886	134	nw ep getglue abc
889	163	time high bitcoin currency
886	180	feel people boycotting elementary loving doesn addicted sherlock aw well
922	211	downton abbey heartthrob spoiler alert moss grows lady mary downtonabbey
786	167	responsible avoid sequestration sequestration
884	161	cool printing car
891	126	hey pitbull love song rock floor love
889	128	clothing online cry
55	157	kim lt gt kardashian lt gt day dressing bump oddest lt gt lt gt
31	146	connecticut label gmos democracy labelgmos
884	161	printed car
12	118	time israel turkey remember deep common history opinion
12	118	time israel turkey remember deep common history opinion
12	118	time israel turkey remember deep common history opinion
1075	169	honey boo boo girl scouts shut online cookie campaign honey boo boo hawking girl scout cooky
12	118	time israel turkey remember deep common history opinion
12	118	time israel turkey remember deep common history opinion
1126	214	pd covered attempt repeal common core standard mo legislature
884	161	printed car half weight safe jim kor created urbee three wheel seater design
1075	169	honey boo boo powers good sells girl scout cookies facebook
12	118	time israel turkey remember deep common history opinion
12	118	time israel turkey remember deep common history opinion
680	167	will worse sequestration sequestration trim fat
12	118	time israel turkey remember deep common history opinion
1214	209	news organization asks ufo shoot famous chelyabinsk meteorite
786	145	ways sequestration will hurt parks wildlife national park will hard hit looming sequestration
14	212	pregnant kate middleton maternity shopping london topshop kate middleton duchess kardashian
786	145	ways sequestration will hurt parks wildlife
1126	160	math game mmo education social educational game long
31	146	gmo labels rob people wal mart thing everyday low prices
680	167	sequestration dc spending problem congress solution paycheck sign petition
1214	209	nasa russian meteor coming nasa meteor exploded russia wasn
1214	209	nasa russian meteor coming nasa meteor exploded russia wasn
1214	209	nasa russian meteor coming nasa meteor exploded russia wasn
886	158	hushpuppy golden skillet good
680	167	obamas sequestration desire cut expense household gun control
33	161	printed car save money energy
896	126	music pitbull dade county lil wayne diss
14	212	pregnant kate middleton maternity shopping london topshop
127	116	technology firm accused china hacking awaits consequence
886	180	bbc sherlock wait sherlock
884	161	radical improvement car printing requires radical urbee printed
31	146	jared polis peter sponsoring bill mandate labeling food gmo
680	167	sen obama fear sequestration explain obama solve problem
33	161	printed car save money energy
1075	169	honey boo boo star alana thompson sell girl scout cookies facebook organization shuts
1075	169	honey boo boo girl scout cookie sale shut news
1107	217	qualities pope cardinals joseph raifzenger vatican head catholic chu
1107	217	qualities pope cardinals joseph raifzenger vatican head catholic chu
48	195	oscar argo best picture winner argo canadian connection learn
142	163	bitcoin hits time high
142	163	slash bitcoin hits time high writes bitcoin top previous time high
104	141	gossip tonight oz great powerful london premiere including moody mila kunis
891	126	will pitbull realise awful making music
55	157	gossip celebrity nice kim kardashian covers pregnancy curves teamfollowback
1075	169	mama june amp honey boo boo selling girl scout cookies
31	146	mt night tour support gmo labeling vt
893	216	sugar diet linked type diabetes rates study finds huffington post sugar diet linked type
1075	169	mama june amp honey boo boo selling girl scout cookies
172	124	thug te brandon arrest dui
173	130	lawyer heaven
904	215	digging path snowblower irony
5	171	happy birthday ron weasley
1126	214	decision math easy compared core
48	170	cia infiltrated hollywood argo
241	206	yarn bombed pay phone
31	146	food ops news bills require label genetically engineered food minneapolis star tribune bills
1450	128	urban clothing ti clothing brand akoo blue pelt great jeans popular clothing brand
882	127	suryaray surya outcry chuck hagel nomination
882	127	outcry chuck hagel nomination
882	127	outcry chuck hagel nomination
104	141	erm wizard oz james franco amp mila kunis
5	171	happy birthday ronald weasley lt
891	126	cool promoting np nowplaying feel moment pitbull christina aguilera
890	123	min news february complex sunspot group
1084	180	guys sherlock starts filming month repeat series three sherlock starts filming month
77	158	lol polish hush puppies dat wait
891	126	dad love song pitbull dont weird
1214	126	pitbull song belongs trash underneath landfill close earth core burn tf outta tht lame ish
241	124	bobby brown sentenced days jail dui
33	161	printed car save money energy
127	116	consider military action financial sanction cyber attack
155	160	social medium education learning benefit eci
786	145	grim reading park resource visitor sequestration amp california national parks
127	116	gas risk chinese military cyber attack infosec
893	216	simply sitting reduce type diabetes risk uk simply sitting moving mor
786	167	obama cut round golf week sequestration cut easily absorbed reduction public service
127	116	science talk pla hacker piece chinese cyber attack free podcast
893	216	researchers shocked diabetes finding alarming adult
916	201	higgs boson calculations indicate finite lifespan universe discovery
241	206	enter los yarn bombing vi en google para siempre
30	183	evernote ios updated pdf viewer snippets ipad earlier today evernote pulled
89	136	tearing girl partly riveting partly wanna read batman year today
104	141	meet glinda theodora amp chat mila kunis michelle williams amp rachel weisz
886	180	elementary isn good bbc sherlock
1353	204	justice league kagan sotomayor breath fresh air scotus time
5	171	happy day weasley
104	141	mila kunis oz powerful great premiere
5	171	happy birthday ronald bilius weasley
890	123	nasa nasa sdo rain sun
904	215	hope snow blower
904	203	floods fire lot heat summer
106	135	bigdog legged robot add arm throw scout video
891	126	pitbull ft christina aguilera feel moment gt james arthur impossible
5	171	happy birthday ron weasley
1297	133	itw professional brands offers tips combat cruise norovirus outbreak oil ship cargo
142	163	dammit missed boat ons time high bitcoin currency
886	180	villain year bbc sherlock time movie recommend titled cloud atlas kinda unique
106	135	bigdog helping hand
5	171	ron weasley birthday ginger mouth happy birthday ron
1107	217	cardinals long process picking pope vatican city reuters pope benedict xvi official
5	171	happy birthday king ron weasley
893	216	sugar type diabetes
241	206	incredibly cool yarn bombings brighten day
1075	169	honey boo boo shut girl scouts year reality star sell cooky onl news video
1546	125	snubbed jk nice cu
5	171	happy birthday ron weasley proof magic ginger
5	171	ron weasley bday
1296	135	bigdog mule robot wreaks havoc herculean throwing arm
40	218	man missing sinkhole grows bedroom
40	218	man missing sinkhole grows bedroom
40	218	man missing sinkhole grows bedroom
5	171	set fotos march st happy birthday ron
1075	169	honey boo boo girl scout cookie fiasco reminds sold cooky boy scout sold trash bags fuckin trash bag sucked
40	218	man missing sinkhole grows bedroom
40	218	siguemeytesigo man missing sinkhole grows bedroom teamfollowback
5	171	isn happy birthday ron weasley trending
5	171	weasley king
40	218	fb man vanishes sinkhole open year man disappeared thursday night sinkhole news
40	218	man vanishes sinkhole open year man disappeared thursday night sinkhole opened und
40	218	man vanishes sinkhole open year man disappeared thursday night sinkhole opened und
40	218	man vanishes sinkhole open year man disappeared thursday night sinkhole opened und
14	212	latest post kate middleton royal baby staff
55	157	gossip celebritynews pregnant kim kardashian stuns casual white jeans lacey kknews
5	171	happy birthday ron weasley
132	159	clothing companies start creating circular economy exist
1547	171	ron admin fact ron
5	171	happy birthday ron weasley
110	121	moocs massive open online course open top university digital life
106	135	large robotic dog throws lb cinderblocks face
893	216	pesticides linked type diabetes medical news today
5	171	weasley king
893	216	neuro high risk developing type diabetes address balance sedentary
40	218	usa man missing sinkhole grows bedroom
5	171	god forgot happy birthday ronald bilius weasley god bless boy
5	171	happy birthday favourite ginger ron weasley lt
1214	209	rusia meteor meteor wilayah chelyabins
104	141	mila kunis james franco amp michelle williams attended oz great powerful photocall moscow
106	135	gah bad giant robotic dog hell mount giant
40	218	florida man swallowed massive sinkhole bedroom
40	218	search man swallowed sinkhole rob rescue effort find man sinkhole opened
896	126	lil wayne responds pitbull diss magazine
5	171	happy birthday ronald bilius weasley
40	218	reporting sinkhole evacuated search missing man suspended
106	135	watch terminator late pentagon scariest robot hurl cinder block
40	218	neighbors family brandon neighborhood man trapped sinkhole local
1359	117	free peeps diorama open studio library arts center
786	145	news national park forest prepare service budget battle
680	167	angry sequestration economic crisis
40	218	large sinkhole open tampa area swallowing man brother washington post anonymous
884	161	futuristic city car will printing engineer jim kor car efficient
40	218	man vanishes bedroom sinkhole year man disappeared thursday night sinkhole opened
40	218	florida man swallowed large sinkhole bedroom
40	218	florida man swallowed large sinkhole bedroom
40	218	man vanishes bedroom sinkhole year man disappeared thursday night sinkhole opened
40	218	tampa area man swallowed sinkhole brandon fla ap man missing large sinkhole opened unde
40	218	year man disappeared thursday sinkhole opened underneath bedroom florida
40	218	tampa area man swallowed sinkhole brandon fla ap man missing large sinkhole opened unde
40	218	fears man swallowed sinkhole
5	171	forgot today ron weasley birthday well happy day ron
40	218	man missing sinkhole appears fla man missing giant sinkhole appeared night house
891	126	pitbull feel moment ft christina aguilera voice pitbull ain bad lolol
40	218	year man trapped sinkhole swallow bedroom fla wakeup
1075	136	fridayreads girl gillian flynn forward twitter bad girl
241	171	wanna celebrate ron birthday watch doctor read drink ice cream
40	218	large sinkhole open bedroom swallowing man
5	171	ron weasley birthday coincidence
40	218	tampa area man swallowed sinkhole large sinkhole opened bedroom house tampa mesa
904	215	toro snowblower belt offer
680	167	americans washington cut sequestration painful barack obama loses tgdn tcot gop
106	135	boston dynamics big dog robot learns throw concrete block geek
40	218	man trapped foot wide sinkhole tampa
40	218	year man brandon florida disappeared sinkhole opened bedroom presumed
40	218	real life real scary florida man swallowed massive sinkhole bedroom
129	192	whooping cough outbreak case fall number people catching whooping cough continues fall england
40	218	florida sinkhole rescue crews reach man swallowed massive huffington post
40	218	sinkhole swallows man florida interesting insurance claim
106	135	great robot dog chase throw giant brick
40	218	florida man presumed dead sinkhole swallow bedroom brandon fla year man
891	126	pitbull feel moment feat christina aguilera
129	192	whooping cough outbreak case fall healthnews
40	218	man trapped foot wide sinkhole tampa
1522	111	drought force town land
40	218	tampa area man swallowed sinkhole man missing large sinkhole opened indianapolis
129	192	good news bbc news whooping cough outbreak case fall
40	218	sinkhole year man disappeared thursday night sinkhole opened bedroom florida swallowing
5	171	happy birthday ron weasley best
1075	169	tmz live honey boo boo girl scout cookie outlaw
40	218	florida man swallowed sinkhole feared dead cnn cbs man swallowed sinkhole feared
40	218	man disappears sinkhole swallow bedroom florida bw terrible start morning
129	192	whooping cough outbreak case fall
1431	192	pertussis whooping cough contagious disease caused bacteria video prevention
5	171	forgot happy birthday ronald billius weasley
5	171	ron ron weasley harry harry potter
0	167	propose delay ineffective law obamacare delay sequestration sounds good idea
48	195	working oscar winner argo decent life pi tonight good
188	147	great victoria secret commercial
5	171	ron weasley birthday mind fucker amp
882	167	gop protecting loophole millionaire bank oil company worst sequestration epa screwed
1353	204	supreme court justice sotomayor racially charged remark race ethnic relations usa race
5	171	happy birthday king ron weasley
896	126	pitbull useless guy heard dat useless pitbull dis lil wayne wtf march
106	135	beware dog remember bigdog robot mule boston dynamic developing well throw
5	171	happy birthday ron follow
5	171	happy birthday ronald bilius weasley
106	135	big dog throw cinder blocks making scariest robot
5	171	perch weasley il
40	218	tampa area man missing swallowed sinkhole engineers didn life
110	121	reasons moocs provide real
40	218	rescuers search florida man massive sinkhole swallow bedroom fox news national postrescuers sear
40	218	video police sign life sinkhole open florida swallowing man
40	218	rescuers search florida man massive sinkhole swallow bedroom fox news national postrescuers sear
40	218	add list irrational fear mt man swallowed alive ft sinkhole open beneath bedroom
40	218	florida sinkhole swallow man bedroom
40	218	saddest thing florida man presumed dead sinkhole swallows bedroom
40	218	check article stuck sinkhole florida rescue teams effort save buried man
40	218	florida man swallowed sinkhole
106	135	big dog throw cinder blocks making scariest robot sc
40	218	sinkhole swallow florida man weird
31	146	activism online time force action fda gmo labeling ows
40	218	man missing sinkhole massive hole open florida
40	218	nightmare fuel man trapped foot wide sinkhole tampa
1296	135	bigdog mule robot wreaks havoc herculean throwing arm
106	135	bigdog robot lifts throws cinder blocks arm
40	218	tampa man swallowed alive foot sinkhole opened bed
40	218	game gaming tool sinkhole swallow sleeping man explains man florida
40	218	florida man missing swallowed sinkhole miami reuters florida man missing friday sinkhole
1075	169	honey boo boo allowed sell girl scout cookies poll
680	167	don donate amp vote sequestration lacking
5	171	care justin bieber birthday ron weasleys potterhead
40	218	florida man feared dead sinkhole open bedroom swallowing
40	218	floridaman florida man swallowed massive sinkhole bedroom
104	141	wouldn mind going disney oz film purely fact mila kunis
886	180	john isn sherlock holmes hat sherlock
5	171	happy birthday ron
40	218	horrifying foot sinkhole swallowed florida man bed night florida man ve
5	171	share love hair ginger wear orange play eat lot food ron birthday
907	223	video blow dog
106	135	video dynamic robot manipulation
132	159	clothing companies start creating circular economy
106	135	afraid dog terrified legged dog robot backed pentagon throw concrete block
1075	169	honey boo boo banned girl scout cookie sale online blog
106	135	pentagon scariest robot hurl cinder blocks
1548	122	check kickstarter video film valley inn films kickstarter
40	218	check article stuck sinkhole florida rescue teams effort save buried man
5	171	happy birthday ron weasley
40	218	sinkhole suck fla man bedroom earth officials engineer searching unstable area
893	216	quantity sugar food supply linked diabetes rate researcher
86	203	social medium flood social medium queensland flood event essential peop
40	218	celebrities gossip scary florida man swallowed sinkhole bed video
1349	135	mind meld study leading darpa killer robot army
786	145	yikes org nat parks service lose federal budget sequester
40	218	heard brother screaming sinkhole swallowed abc heard brother
600	162	reuters china move ahead north korea trade zone despite nuclear test
1075	169	post mama june amp amp honey boo boo selling girl scout cookies
40	218	tampa area man swallowed sinkhole man missing early friday large sinkhole opened
40	218	gt gt loud crash sinkhole swallow florida man
40	218	news florida man disappears sinkhole opened bedroom province
40	218	florida man dy sinkhole bedroom collapse
48	195	argo oscar win iran iranian people sunday night argo ben affleck fil
5	171	happy birthday ronald weasley
106	135	big dog throw cinder blocks making scariest robot
40	218	florida sinkhole opens swallows man florida sinkhole pulled man extends est
40	218	sinkhole swallow florida man inside house
40	218	heard brother screaming sinkhole swallowed
12	118	israel seek repair tie turkey peace
40	218	sinkhole suck florida man bedroom earth ymdlu
40	218	screams heard florida man swallowed giant sinkhole pictures
889	128	clothes shopping online
5	171	al al esta ouvindo falar harry potter ron weasley
5	171	happy birthday favorite people ron weasley second
31	146	maine quietly mounting massive support historic gmo labeling bill
680	167	gop sequestration antic will washington will democratic
1294	209	meteorito chelyabinsk em parte por mineral
1549	111	farmers call govt declare drought zone
40	218	sinkhole house swallow florida man chicago tribune house swallow florida
40	218	florida man falls amp disappears massive sinkhole opens bedroom sleeping wshh
40	218	tampa area man swallowed sinkhole yahoo news
5	171	ahhhh happy birthday ron weasley man
1075	169	honey boo boo ad girl scout cooky facebook girl
5	171	happy birthday ron weasley mi
40	218	sinkhole house swallow florida man chicago tribune san francisco house swall
31	146	vt gmos announced vt house ag cmte voted pas gmo labeling bill
1075	169	girl scouts offer reality honey boo boo
40	218	florida sinkhole swallows house man trapped inside
5	171	thought point ron weasleys birthday
106	135	will darpa bd watch video cinder block throwing robot
5	171	happy birthday second boyfriend ron weasley
175	114	recognize emergency financial manager undemocratic support case detroit
40	218	florida man swallowed massive sinkhole bedroom
1079	180	free sherlock homes long reach intellectual property law
241	206	incredibly cool yarn bombings brighten day
30	183	evernote updated add pdf viewer snippets evernote updated version adding
922	144	hey casting black guy join downton abbey
55	157	kim kardashian improved pregnancy style
5	171	quiz ron weasley tag
786	167	govt debt budget sequestration putting crap sandwich
1297	133	tips combat cruise ship outbreak smart thinking itw pb cleaning cruise health
40	218	florida man swallowed large sudden sinkhole scream help
922	144	downton abbey spoiler returning
40	218	man feared dead foot sinkhole tampa cbs news top news
922	144	downton abbey latest shocking exit find isn returning season
5	171	forget today ron weasley birthday
922	144	downton abbey latest shocking exit find isn returning season spoiler
893	216	diabetes drugs linked pancreatitis risk
922	144	downton abbey latest shocking exit find isn returning season downton abbey lost
106	135	watch darpa robotic dog throw cinder blocks head wired darpa
922	144	downton abbey latest shocking exit find isn returning season downton abbey lost actor read
40	218	florida man swallowed sinkhole bedroom man feared dead sucked hole
1296	135	darpa bigdog pack mule robot arm totally screwed
799	189	cat brought douglas day ago received treatment sore eye injury
106	135	true mt watch darpa robotic dog throw cinder blocks head
5	171	justin beiber birthday happy freakin birthday ron weasley love
40	218	florida man swallowed sinkhole bedroom
106	135	darpa trains bigdog throw cinder blocks
922	144	downton abbey set lose maid brien
40	218	florida man swallowed sinkhole
896	126	lil wayne responds pitbull lil wayne massive fire highly commen
5	171	happy birthday ron weasley
40	218	prayers fl man falls amp disappears massive sinkhole opens bedroom sleeping
40	218	whoa man feared dead sinkhole open bedroom swallowing
5	171	dear ronald bilius weasley ron happy birthday ginger von von king lt ron potterhead harrypotter rowling
1075	169	girl scouts shut reality star selling cookies online
1075	169	girl scouts shut reality star selling cookies online shocking news girl scouts slapped
922	144	downton abbey nasty maid sarah brien leave hit period drama
31	146	breaking news vt house ag cmte voted pas gmo labeling bill vt gmos
175	184	amid president hugo chavez worsening health venezuela quietly prepares snap elections
886	180	sherlock
40	218	floridaman huge sinkhole swallow florida man slept
5	171	ron weasley birthday today awesome ginger will forever love happy birthday king weasley
5	171	happy birthday ron weasley
40	218	happen sinkhole swallow man county fire rescue year man trapped
106	135	bigdog robot hurl cinder blocks pc magazine bbc robot hurl cinder
889	128	button moon childrenswear based westlothian designer clothing amp accessory shop online
5	171	weasley king
884	161	printed car half weight
680	167	sequestration bad business economy
5	171	wished happy birthday thought ron weasley birthday happy birthday justin
40	218	florida man swallowed sinkhole bedroom yahoo news
106	135	scientists create terrifying prancing robot horse hurl cinder block
5	171	por podium ser harry happy birthday weasley king
916	201	universe higgs ifs
896	126	lil wayne responds pitbull diss amp pitbull responds
31	146	maine quietly mounting massive support historic gmo labeling bill
5	171	happy birthday ron weasley
1075	169	kudos honey boo boo family helping charity organization boo girl scouts praising
40	218	omfg scary florida sinkhole open swallow man top stories news
5	171	happy birthday ron
138	218	guy disappears sinkhole story dark urban fantasy tastic
52	112	fort year bc classic winner scare challenger gulfstream handicap
5	171	happy birthday weasley king lt
786	145	enjoying national park gate locked
922	144	tube talk cast member leaving downton abbey stl tv
40	218	reporting sinkhole house seffner dozens family friend waiting word fate jeff bush
40	218	florida man swallowed sinkhole bedroom cnn headline pretty typical weekend
132	159	clothing companies start creating circular economy
5	171	happy birthday weasley king lt
40	218	man swallowed sinkhole bedroom
55	157	pregnant kim kardashian stuns casual white jeans lacey bump top
40	218	fla man swallowed sinkhole presumed dead news amp man
5	171	happy birthday ron
5	171	vamos happy birthday weasley king
5	171	happy birthday weasley king
893	216	diabetes drugs linked pancreatitis risk
89	136	herbert girl great book
5	171	happy birthday weasley king
884	161	urbee printed car future
884	161	urbee printed car future
1075	169	honey boo boo selling girl scout cooky online
5	171	happy birthday weasley king
5	171	happy birthday weasley king
40	218	fla man swallowed sinkhole presumed dead abc news abc news fla man swallowed sinkhole presumed
106	135	bigdog robot throw cinder block face amazing scary amazing tech
40	218	man trapped bedroom sinkhole fla
884	161	print car urbee printed car future check video yam
5	171	happy birthday weasley king lt
5	171	happy birthday ron weasley weasley
89	176	book club member talking meeting good
5	171	happy birthday weasley king
55	157	kim kardashian struggle maternity wear pregnancy hollywood life ka
55	157	kim kardashian struggle maternity wear pregnancy hollywood life ka
884	161	urbee printed car future
680	167	left lead father sequestration intentionally hurting people vice job logical cut tgdn
40	218	sinkhole swallows fla man abc news
1075	169	honest parent selling kid girl scout cooky facebook year
1349	135	mind meld study leading darpa killer robot army
5	171	ronald weasley birthday happy birthday
55	157	kim kardashian maternity wear kanye west baby mama lot fun excited things
104	141	oz great powerful sneak peek michelle williams james franco oz great powerful
886	180	bet sherlock holmes rocked shit elementary school
40	218	sinkhole open florida house man feared dead chicago tribune cbs newssinkhole open florida ho
40	218	florida man feared dead sinkhole swallow
904	215	happier snow blower driveway amazing family
40	218	sinkhole open bedroom florida house man feared dead seffner fla huge sinkhole opened
893	216	vitamin associated increased incidence type diabetes health nutrition
40	218	video florida man missing sinkhole florida man disappeared ft deep sinkhole swallowed bedroom
241	124	bobby brown sentenced day jail dui spend time bar
40	218	sinkhole open florida house man feared dead chicago tribune cbs newssinkhole open florida ho
55	157	read news kim kardashian maternity wear kanye west baby
5	171	happy birthday late rowling happy birthday ron
891	126	vox dont party pitbull amp tjr
1296	135	arm lift bigdog robot level scoop news legged robot
55	157	livewire best dressed week kim kardashian maternity chic lala nicki livewirerecords
884	161	urbee printed car future video
1310	126	wait av nt pitbull tt rapper okbye
5	171	happy birthday ron weasley
40	218	loud crash sinkhole swallows florida man cnn
104	141	mila kunis wicked witch west
40	218	nightmare florida man swallowed sinkhole
5	171	usem gt gt gt gt gt gt gt gt gt happy birthday weasley king lt lt lt lt lt lt lt lt lt vamos potterheads
5	171	usem gt gt gt gt gt gt gt gt gt happy birthday weasley king lt lt lt lt lt lt lt lt lt vamos potterheads
5	171	usem gt gt gt gt gt gt gt gt gt happy birthday weasley king lt lt lt lt lt lt lt lt lt vamos potterheads
55	157	kim kardashian oscars baby bump reality star growing belly elton john oscars party photos
40	218	pray family nightmare sinkhole swallows man alive
922	144	downtown abbey shocker key character departs los angeles march sarah brien left ab
40	218	fla brothers swallowed sinkhole floor collapsed seffner city tampa
40	218	fla man swallowed sinkhole feared dead
106	135	suryaray surya suryaray surya darpa bigdog robot throws cinder blocks proves
106	135	darpa bigdog robot throws cinder blocks proves boss
106	135	darpa bigdog robot throws cinder blocks proves boss
106	135	darpa bigdog robot throws cinder blocks proves boss boston dynamics bigdog arm tech
106	135	darpa bigdog robot throws cinder blocks proves boss boston dynamics bigdog arm effort
70	181	victims costa concordia sue
106	135	darpa bigdog robot throws cinder blocks proves boss boston dynamics bigdog arm effort
106	135	startup tips darpa bigdog robot throws cinder blocks proves boss boston dynamics bigdog arm
31	146	ag committee vermont house approves bill gmo food labeled
922	144	thomas downton abbey loses player siobhan finneran leaving brien role
106	135	big dog throw cinder blocks making scariest robot techcrunch
106	135	suryaray surya nice blog darpa bigdog robot throws cinder suryaray indian
40	218	ap photo jeff bush presumed dead swallowed sinkhole fla earlier today sm wtf
104	141	relationship mila kunis love life relationship mila kunis
1126	214	ways adapt common core standards students special cc ccchat edchat parccelc
40	218	florida man vanishes sucked sinkhole bedroom massive rescu
40	218	sinkhole swallowed fla man unstable topnews
786	145	watch will sequester affect
77	158	hush puppies brother jimmy bbq
40	218	fla brothers swallowed sinkhole floor collapsed seffner city tampa
40	218	fla man swallowed sinkhole chasm feared dead usa today cbs newsfla man swallowed sinkhole ch
40	218	fla man swallowed sinkhole chasm feared dead usa today
5	171	happy birthday ron weasley
5	171	omg justin bieber bday weasley king
680	167	gop doesn health retirement benefit best paid sequestration
1084	129	angry birds web cartoon series coming march
893	216	italy people type diabetes ate mediterranean diet rich vegetable olive oil needed medication
40	218	sinkhole swallowed fla man unstable seffner fla ap matter second earth opened und
110	121	good comparison mooc completion rates
786	145	watch will sequester affect abc news jon sequester ordinary
12	114	breaking michigan gov snyder sending dictator detroit prepares break city
40	218	reason live fl couldn florida man save brother sinkhole
5	171	happy birthday ron weasley
922	144	brien leaving downton abbey clicker
40	218	florida man feared dead sinkhole swallow
886	180	word sherlock letter sherlock episode
110	121	mooc will moocs destroy traditional
40	218	loud crash sinkhole swallow florida man
106	135	darpa bigdog robot throws cinder blocks proves boss boston dynamics bigdog arm effort
40	218	news sinkhole swallow florida man jeffrey bush bbc news
1214	209	photo chelyabinsk meteor boom
40	218	florida man missing sinkhole open bedroom sleeping hole foot
106	135	darpa bigdog robot throws cinder blocks proves boss boston dynamics bigdog arm effort
884	161	urbee printed car future
110	121	education free dictatorship will prevail intellectual liberty education moocs
31	146	initiative label gmo food gain momentum
40	218	couldn florida man save brother sinkhole video man sinkhole sw
40	218	florida man feared dead sinkhole swallow seffner florida reuters florida man yahoo
104	141	rachel mila michelle best dressed oz premiere
904	115	rogers discovering driver stuck waiting car invited enter
786	145	national park prepares cut tucson national park warned prepare tucson
40	218	news video florida man swallowed sinkhole
40	218	bbc news florida man swallowed sinkhole
891	126	jay sean pitbull nowplaying
916	201	universe higgs ifs
104	222	oz great powerful bill premiere interview movies
40	218	man feared dead sinkhole swallow man feared dead sinkhole swallow
138	218	guy fell sinkhole remind florida
5	171	happy birthday ronald billius weasley happybirthday harrypotter ron
106	135	dynamic robot manipulation dynamic robot manipulation bigdog handle heavy object goal
1075	169	honey boo boo girl scout cookie sale shut
5	171	honor ron weasleys birthday will reading harry potter
106	135	darpa bigdog robot throws cinder blocks proves boss
680	167	sequestration obamas cheap debt
889	128	sexy clothes online
1296	135	arm lift bigdog robot level
1296	135	arm lift bigdog robot level
14	212	google hot news kate middleton shopping maternity clothes topshop zoo
1296	135	arm lift bigdog robot level
886	180	sherlock holmes
48	125	decade difference affleck best director nomination ben affleck best picture win
48	125	decade difference affleck best director nomination ben affleck best picture win
40	218	florida man swallowed sinkhole huge sinkhole opened man bedroom
31	146	connecticut label gmos democracy labelgmos
786	145	sequester budget cut will affect character tweet
1460	123	hot anxiety trouble sleeping solar flares
922	144	downton abbey recap season episode race death
40	218	florida man swallowed sinkhole bedroom
40	218	florida man swallowed sinkhole conditions unstable approach sooo creepy
40	218	sign life sinkhole swallow florida man mortgage company insurance
40	218	florida man feared dead sinkhole swallows bedroom news
884	161	excited giant nasa spider robot print lunar base microwave
31	146	vermont house approves gm food labeling bill gmo biotech monsanto
40	218	sit wait rescuers forced halt bid reach body man swallowed ft sinkhole
1104	133	cruise ship outbreak dock spain cruise ship arrived spanish port
40	218	sinkhole swallowed florida man unstable expected grow man vanished earth
40	218	news family wait word florida man swallowed sinkhole
882	127	plz flw hagel approved defense sharply split senate vote
40	218	sinkhole victim brother save
40	218	family wait word sinkhole victim
40	218	florida man swallowed sinkhole florida man disappeared sinkhole swallowed bedroom
40	218	florida man feared dead sinkhole swallow
40	218	family awaits word sinkhole victim sinkhole swallowed jeff bush bedroom remains unstab
40	218	family awaits word sinkhole victim sinkhole swallowed jeff bush bedroom remains unstab
40	218	family awaits word sinkhole victim sinkhole swallowed jeff bush bedroom remains unstab
40	218	news family awaits word sinkhole victim cnn
40	218	florida man swallowed sinkhole
40	218	sinkhole victim brother save jeremy bush lost brother
40	218	family wait word sinkhole victim wait wait word authority recov
106	135	robotic bigdog brick throwing head
922	144	key downton abbey loss siobhan finneran leaving brien role downtonabbey
904	215	snow blower injury common kansas city mo snow removal technique
40	218	bed safe man swallowed sinkhole florida
891	126	cruz feat pitbull dj cruz feat pitbull dreams
893	216	health sitting reduces risk type diabetes medical news today telegraph diet
104	141	rachel michelle mila oz great powerful babe rachel weisz mi fashion
1075	169	honey boo boo girl scout cookie facebook campaign shut report honey boo boo pm
893	216	type diabetes reduced sitting moving sitting
238	167	happy sequestration day repubs will save public tax hike dems will force cost saving measure reducing pay
40	218	florida man feared dead sinkhole swallow reuters topstory
40	218	convinced fl literally hell florida sinkhole swallowed man bedroom grows deeper
40	218	fla sinkhole swallowed man grows deeper seffner fla ap engineers worked gingerly find
40	218	fla sinkhole swallowed man grows deeper houston chronicle sinkhole swallowed man grows
889	128	clothing online fashion online blog shop acmamall malaysia
1296	135	bbc news bigdog legged robot sport throwing arm
40	218	fla sinkhole swallowed man grows deeper
106	135	top story darpa bigdog robot throws cinder blocks proves boss
40	218	today uncertainty man sinkhole tfb
106	135	video robot strong throw breeze block telegraph
106	135	robot strong throw breeze block bigdog robot demonstrates strength skill pick br
886	180	buku sherlock casebook bbc tp budget
40	218	fla sinkhole swallowed man grows deeper yahoo news
40	218	florida sinkhole work continues dangerous ground claimed life engineers will today carry
1536	180	elementary web hd ipad elementary
215	128	row amazon rape shirt internet retailer amazon continuing sell clothes firm despite
922	144	downton abbey season uae
106	135	robot strong throw breeze block bbc news robot strong
40	218	sinkhole swallowed man grows deeper sinkhole swallowed man grows deeper collapse
106	135	big dog weaponised pentagon scariest robot hurl cinder block
922	144	siobhan finneran quits downton abbey
55	157	kim kardashian super stylish mummy
40	218	floridaman swallowed sinkhole dy
40	218	fla sinkhole swallowed man grows deeper usa today abc newsfla sinkhole swallowed man grows deep
922	144	cast coming going downton abbey announced british drama washington post
142	163	explore virtual currency bitcoin
40	218	florida sinkhole swallow man shocking start sinkhole season video florida sinkhole point st
1296	135	bot leg walk arm lift stuff gt bigdog robot level bbc
40	218	florida sinkhole swallowed man bedroom grows deeper official warn dangerous
1075	169	honey boo boo online girl scout cookie campaign shut honey boo boo
922	211	comings going downton abbey season
106	135	boston dynamics continues irrational robot will eventually turn human race
1460	123	solar flare pic
55	157	gossip celebritynews hot mama kim kardashian evening maternity wear kknews
215	128	row amazon rape shirt internet retailer amazon continuing sell clothes firm despite
1126	214	indiana states acting oppose common core standards
886	134	catching middle cute sue
55	157	kim kardashian struggle maternity wear pregnancy
40	218	florida man presumed dead sinkhole swallow bedroom brandon fla year man disappeared
1542	145	terrible consequences sequester
40	218	sinkhole swallow florida man seffner florida man missing feared dead
31	146	bill maher complain horse meat vote gmo labeling video
40	218	authorities work locate florida man vanished trace large sinkhole fox news
896	126	shots fired lil wayne pitbull magazine
172	124	guess dui alert buckwild star arrested
106	135	robot drunk boston dynamics bigdog hurl cinderblocks
922	144	break evil dynamic duo siobhan finneran returning downton abbey fb
69	183	evernote blog security notice service wide password reset
69	183	woah evernote implemented service wide password reset
40	218	sign florida man swallowed sinkhole asleep stocks
69	183	evernote reset user password intrusion data accessed
69	183	hacked reset user password
106	135	buzzfeed bigdog robot arm throws cinder blocks video
