616	178	told tiger wood tiger woods top ranked
784	202	boko haram option amnesty
784	202	option amnesty boko haram
227	121	ethics moocs inside higher highered elearning edtech
972	148	cyprus student hold protest rally bank stay shut nicosia reuters chairman cyprus biggest commercial bank offered
471	128	clothing accessory visit shopping business clothes uk
137	157	kim kardashian defends maternity style happy
572	140	battle rage bone england richard iii london reuters king richard iii center ne
572	140	battle rage bone england richard iii london reuters king richard iii center ne
143	112	cb big horse racing kentucky derby top horse week
572	140	battle rage bone england richard iii
227	121	educational social hurdle moocs issue well academic data created
511	115	quotes rogers perfect human tear lt
572	140	medieval king richard iii challenge leicester resting place human huffington
616	178	american tiger woods win bay hill career
137	157	convinced kim kardashian stylist hate passion
498	121	moocs space treat
616	178	finally happened tiger woods number
784	202	amnesty boko haram presidency insists
616	178	mcilroy texts tiger losing top ranking rory mcilroy text message tiger woods tuesday
501	216	antibody tx diabetes promising early study medpage today antibody
227	121	maintain face moocs cheaper educational option
528	136	girl chart book list funny
784	202	members northern economic summit federal government will amnesty boko haram member
735	117	bright peeps cupcake color didn existed peeps knowledge clearly cupcake
616	178	golf tiger woods wins bay hill reclaims ranking
572	140	battle rage bone england richard iii
815	153	state slam oscarpistorius challenging bail condition travel point agreed passport
471	128	dad quicker buy clothes online
972	148	cypriot youth protest bank stay shut nicosia reuters thousands student bank
468	180	bristol post commented sherlock star benedict cumberbatch film bristol bristol star
468	180	haha sherlock holmes
616	178	golf channel academy hit high fade tiger tiger woods going win eighth time bay
572	140	richard iii buried poll
616	178	mcilroy text tiger losing top ranking rory mcilroy text message tiger woods tuesday cong
227	121	harvard paid teaching labor mooc model
616	178	mcilroy text tiger losing top ranking rory mcilroy text message tiger woods tuesday winni
972	148	cypriot youth protest bank stay shut nicosia reuters thousands student bank worker protested
565	163	regulation step mt government regulate bitcoin amp virtual currencies
97	121	don forget moocs will
769	143	funding major issue cup stadium brazil sportsbiz
90	184	venezuela set post chavez election venezuela set election hugo chavez
706	111	starting april mandatory water restriction denver water customer watering day week
616	178	king tiger wood number cream will rise top eventually bestever
735	206	easter eggs yarn
735	117	madness denver post peeps contest denver
616	178	golf tiger top major title globalpost
972	148	video bank cyprus worker protest
137	157	gossip celebritynews kim kardashian runs baby bump nyc kknews
501	216	progression insulin patients diabetes mellitus dm dual oral
468	180	ser sherlock
616	178	tiger woods wins arnold palmer invitational highlight final round tiger woods wins arnold palmer
501	216	study find turmeric prevents diabetes pain inflammation
137	157	pregnant kim kardashian step eye popping dress
565	163	universal virtual currency
137	157	pregnant kim kardashian step eye popping dress
468	180	sherlocked
616	178	tiger woods half year losing title tiger woods reclaimed golf ra
616	178	tiger woods half year losing title tiger woods reclaimed golf ra
592	124	teen mom star farrah abraham pathetic excuses dui teen mom star farrah abraham admitted dr
592	124	happy teen mom star farrah abraham pathetic excuses dui teen mom
592	124	teen mom star farrah abraham pathetic excuses dui teen mom star farrah abraham admitted dr
972	148	picture cyprus protest troika
468	180	sherlock tea cozy getglue cbs
165	147	eating dinner victoria secret commercial push food ugh
468	180	sherlock star benedict cumberbatch film bristol
137	157	inform kim kardashians pregnant wearing tight dress pop
137	157	kim find decent maternity clothes starting doubt fashion
90	184	venezuela set post chavez election
627	119	government sued pesticides killing millions bees
571	163	interesting analysis soaring bitcoin sustainable
165	147	watching victoria secret commercial thinking bye bye confidence
616	178	tiger woods wins arnold palmer invitational bay hill regains ranking tru entertainment magazine
39	200	america debating sex marriage uk agreed catch prop
18	160	social medium education
18	160	social medium education view growing demand social medium skill student
468	180	sherlocked killing bbc awful deal cumberbatch robert dollchat
5	223	hit puppy lady leash dark
498	123	time lapse captures aurora borealis caused massive solar flare
471	136	girl gillian flynn
165	147	victoria secret commercial set car lot walking bra car lot
165	147	heard sweet talk amp lee victoria secret commercial
227	121	massive open online course mooc delivered blended schools sacramento bee
227	121	photo massive open online course mooc delivered blended schools sacramento bee massive
471	128	buy mini thin clothing white trash clothing facebook click
616	178	tiger woods num
468	180	fandom sherlock shirt london fog sherlock
18	160	social media social medium education view growing demand social medium skill st
165	147	victoria secret commercial needed reminder shopping
616	178	golf pga tiger woods golfer win palmer invitational news tribune tfb sooo
97	134	views sue heck video hope watched
173	131	coolest trash dress shoot ve photography
1101	111	continuing drought sw china continuing drought
137	157	kim kardashian kanye west loves pregnancy curves
137	157	gossip celebritynews kim kardashian struggle pregnancy style houston kknews
784	202	ynaija granting amnesty boko haram decrease killing north afenifere
877	111	water politics big stuff folk mexico farmers seek priority call drought
572	140	richard iii reburial plan breach human descendant
1041	202	george kerley amnesty niger delta militancy boko haram earlier friend posted
1041	202	george kerley amnesty niger delta militancy boko haram
616	178	breakingnews will winning help tiger troubled life prodigal golfer tiger woods resume worl
616	178	will winning help tiger troubled life prodigal golfer tiger woods resume ranking
1002	187	pope francis chooses wash foot young prisoner juvenile detention facility rome
137	157	kim kardashian tour york city baby bump wrapped mustard leather letting style slip
616	178	winning care tiger woods life cnn
784	202	sheik rejects amnesty boko haram militants destroyed
572	140	english king die battle bone richard iii history
137	157	kanye stylist kanye dress super kim kardashian sad case dress code amaze
227	121	teach massive open online courses moocs don students deserve credit
471	128	clothing catalogue food shop find product online product code
616	178	fowler golf gain tiger woods
137	157	kim kardashian maternity day nyc reality star kim kardashian
572	140	coming richard iii reburial plan breach human descendant
137	157	kim kardashian accidentally reveals tight leather dress squeezed mom
164	136	finished girl night movie settle lifetime hitchcock
227	121	florida york expand online education inside higher state education
572	140	richard iii reburial plan breach human descendant amp gonna pay shit
471	128	online shopping summer clothing fun assignment day
29	124	mia celebrity gossip entertainment news bobby brown turns jail
227	121	free online course quality match reputation tall order mooc
616	178	tiger winning care cnn mad tiger woods people
73	134	watch abc east middle pm est usa march live stream
616	178	tiger ad spur redemption debate prodigal golfer tiger woods resume ranking
616	178	tiger ad spur redemption debate prodigal golfer tiger woods resume tweets update
616	178	tiger ad spur redemption debate prodigal golfer tiger woods resume ranking disc
572	140	bbc news richard iii relative seek judicial review burial thinking decided leicester
137	157	kim kardashian wears three maternity outfits day pictures
1002	187	pope wash feet juvenile prisoners break tradition news
471	128	point reason iphone social networking amazon online buying amp
972	148	cyprus bailout cyprus bailout peoples blood money
137	157	ur baby kim tight leather brown dress pregnant
39	200	lord dear sex marriage bill defeated peer
501	216	study insulin injection double risk death type ii diabetic
565	163	ability international employee virtual currency bitcoin
240	141	watched oz kunis red lip leather pant hot lady man
565	163	regulate bitcoin currency time high tech march scientist
173	212	kate middleton lesson pregnant women kate middleton
468	180	sherlock bbc
501	216	study insulin injection double risk death type ii diabetic
468	180	watching sherlock work don molly sherlock thing playing
1102	117	joking peep greatest example ugc community building
468	180	el young sherlock holmes
468	180	sherlock
735	117	easter peep draw peeps
784	202	good respected muslim leader danger amnesty boko haram
26	111	ongoing drought hit norman main water source lake hard reported
627	119	news pesticides damage bee brain commonly pesticide damaging brain honey bee
592	124	teen mom star farrah abraham pathetic excuses dui arrest
616	178	tiger woods half year losing title tiger woods reclaimed golf
528	136	panda yeah read recommendation good taste girl waiting shelf
165	147	tv god victoria secret commercial
137	157	kim kardashian high skirt good pregnancy curve
528	176	vote book april read choose twitter book club read
735	117	best peep entry year clearly clarence thomas peep vote
137	212	kim kardashian kate middleton pregnancy styles comparison baby bump fashions don
468	180	miracle sherlock bbc fall
137	157	pregnant celebrity photo round kim kardashian kate middleton fergie evan rachel wood
471	128	clothing amp accessories peacock swarovski bracelet redeem online coun
735	117	currently diorama contest vote amp
735	117	peep diorama rotten jean honor guy uk painting
468	180	bbc announced amanda abbington official cast member sherlock
137	212	kim kate middleton pregnancy style face win mid course
137	157	kim kardashian maternity style beautiful belly expectant reality star discus
137	157	pregnant kim kardashian wears leather dress designed kanye west
240	141	picture waiting watch oz film mila kunis
137	212	kim kate middleton pregnancy style face win seriously
240	141	woman crush week looked good movie oz beautiful
592	124	teen mom farrah abraham party girl lingerie wake dui arrest
468	180	skyfall sherlock cant watch
468	180	photoset benedict cumberbatch set sherlock
735	117	easter peeps treat
471	128	applying easy buying clothes online forever questionable
1043	180	cbs renews elementary good wife person interest ncis mentalist broke girls mi
137	157	kim kardashian assures feel great pregnancy curb kim kardashian style fact
1043	180	en cbs good wife el hawaii elementary person interest
668	189	child hurt dog surely priority child pet licence dangerous dog
1043	180	elementary good wife survivor lead cbs renewal hitfix hitfix elementary good wife
554	185	giant panda breeding season day continue monitor behavior amp mei xiang hormone
1043	180	elementary good wife survivor lead cbs renewal hitfix
137	157	pregnant kim kardashian wears leather dress designed kanye west earlier week reported
1063	180	theatre downtown open sherlock holmes suicide club tim step shoe sir ar
137	157	kim kardashian wears baby bump hugging embellished dress shares thoughts celebrity news
592	124	dj whoo kid speaks short running police dui arrest listen
137	157	kim kardashian wears baby bump hugging embellished dress shares thoughts raising child
1043	180	elementary person interest broke girls renewed cbs
735	117	time easter check winner peeps diorama contest
137	157	kim kardashian pregnant coz ain
972	148	cyprus business hurt bank stay shut
165	147	victoria secret sexy tv commercial summer
1103	122	huge kickstarter backer amy don art fade hour kickstarter
1043	180	cbs renews elementary person interest mentalist good wife ign
630	129	angry birds cartoon weekend
471	128	outfit omg awwwww shopping online cute
627	119	bbc news pesticides damage bee brain
1063	180	medo ar ver sherlock imposs sherlock
137	157	kim horrible omg buy maternity clothes
471	128	urban clothing online urban clothing store buy streetwear online seo traffic wholesale skatewear online
468	180	fandom sherlock hiatus series como se pra hiatus sherlock
565	163	bitcoin subject anti money laundering rule ht
501	216	vitamin supplements help manage type diabetes
10	134	middle tv love viggletv themiddle viggle
62	134	mom watching middle sue reminds don character nerdy side yeah
137	157	kim kardashian wears three maternity outfits day today anchor jenna
528	176	fictional narrative aid prof dev list medic book club read
501	216	rapid improvement diabetes gastric bypass surgery diet surgery
1002	187	dtn italy pope wash young offender foot pope francis will wash prisoner foot youth detention cen
137	157	kim kardashian wears three maternity outfits day today celeb gossip news
1002	187	pope wash young offender foot pope francis will wash prisoner foot youth detention centre thur
630	129	angry bird toon
165	147	victoria secret commercial will
468	180	overheard sherlock sexuality steven moffat sherlock sex woman
468	180	hail yesssss sherlock holmes dead benedict cumberbatch filming series
240	141	yell lot oz movie terrible james franco tank mila kunis thought tweet
137	157	making statement kardashian
137	157	will kim pregnancy style
137	157	entent kim kardashian rocks baby bump bedazzled dress slams ridiculous wardrobe criticism
468	180	sherlock holmes sherlock holmes game shadows
468	180	bbc sherlock holmes awesome
137	157	yahoo trending kim kardashian wears three maternity outfits gtnews
471	128	sexy stripes black shirt shop korean fashion clothing european fashion dress
468	180	ve panel con elementary house psych holmes years time visit
815	153	oscar pistorius will appeal condition attached release bail
468	180	finished watching bbc sherlock holmes answer
1002	187	pope wash young offender foot bbc today pope soap opera
735	117	peeps garbage marshmallow creature
62	215	hp snow blower
616	178	cup tiger woods gains momentum masters team tiger woods top
468	180	sherlock
815	153	pistorius appeal unfair bail condition
1002	187	bbc news pope francis wash offender foot maundy thursday
815	153	pistorius appeal unfair bail condition
501	216	diabetes news study associate commonly diabetes drug cancer risk
1002	187	pope wash young offender foot
1002	187	bbc news pope francis wash offender foot maundy thursday
468	180	sherlock holmes dead benedict cumberbatch filming series
1043	180	cbs elementary person interest good wife series
1002	187	bbc news pope francis wash offender foot maundy thursday
815	153	lawyers south african athlete oscar pistorius challenging bail condition court arguing
815	153	north gauteng high court oscarpistorius appeal bail condition
815	153	pistorius free travel lawyers south african athlete osc blo
173	157	maternity terrific pic repost
173	212	pregnant kate middleton baby bump photo picture timeline kate middleton
1047	136	girl female noir fifty shades grey shade farewell chick lit hello
815	153	pistorius free travel
815	153	pistorius lawyer argue bail restriction
815	153	oscar pistorius lawyer accepted travel condition imposed
1002	187	pope francis wash foot young offender rome maundy thursday
1002	187	beautiful pope francis wash foot young offender rome maundy thursday
815	153	oscar pistorius seek relaxation bail term
815	153	oscar pistorius free travel court told
815	153	lawyers appeal pistorius bail restriction
815	153	pistorius lawyer argue bail restriction lawyers oscar pistorius appealed ba
815	153	pistorius lawyer argue lighter bail restriction
815	153	pistorius lighter bail condition
815	153	pistorius lawyer argue lighter bail restriction lawyers south african track star oscar pistorius
815	153	pistorius plea lighter bail condition lawyers south african track star oscar pistorius charged
815	153	pistorius plea lighter bail condition lawyers south african track star oscar pistorius charge news
218	128	urban clothing order usher fashion diddy perfume popular clothing brand puff daddy
471	128	shopping online summer clothes gt gt gt
468	180	watch series sherlock watch series sherlock
1002	187	pope francis wash foot prisoner
137	157	style gossip news kim kardashian rocks baby bump bedazzled dress slams ridiculous lol
468	180	flesh favorite episode bbc kill sherlock
565	163	mark carney canadian man sell house bitcoin virtual currency
1047	136	craig girl shades grey
1002	187	pope francis wash feet young
137	157	kim whale accept fact pregnant wear proper maternity clothes christ almighty
143	112	best florida derby
1002	187	pope francis wash youth foot detention center
137	157	kim kardashian maternity fashion hall shame
468	180	tv replay sherlock saison episode photo vid du
784	202	boko haram amnesty senate backs jonathan warns
468	180	ki sherlock jin sherlock holmes dude
1002	187	pope francis wash foot prisoner
1002	187	love francis washing foot young offender true people pope
137	157	blog kim maternity style
137	157	latest showbiz kim kardashian rocks baby bump bedazzled dress slams ridiculous
511	115	bruce rogers neighborhood blowing children minds
1048	224	tradehill exchange adds dark pools bitcoin liquidity
137	157	isn maternity fashion don kim kardashian bedazzled dress
554	185	panda news panda breeding season arrives dc national zoo washington dc panda breeding season ar
1002	187	video charles pope plan wash prisoners feet matters
468	180	john sherlock sherlock john sherlock los sherlock se con moriarty john los
240	141	felt movie oz great powerful sequel mila kunis parang
1002	187	pope francis wash youth foot tfb tfw
879	112	love draw florida derby merit man drawn kidding irony
1104	206	knitted bright bird wooden knitted bird kind faux
511	115	photoset snowflake cherrispryte fred mcfeely rogers march february
137	157	kim kardashian frock gem sun kardashian
1002	187	pope francis offer hope washing young inmate foot ewtn news
1002	187	pope wash prisoner foot rome pope francis wash inmate foot youth detention centre bbc
1002	187	pope wash prisoner foot rome pope francis wash inmate foot youth detention centre rome
1048	224	tradehill exchange launch bitcoin dark pool trading
511	115	photoset snowflake cherrispryte fred mcfeely rogers march february
1105	157	kim kardashian raise children color promoting film temptation
1002	187	pope francis wash youth foot detention center
1002	187	breaking news pope washing feet women holy thursday mass
137	157	kim kardashian blasts maternity fashion cops wearing radar online hollywood
1106	189	twitter showing pet prompt reply bout pet revenge
1002	187	pope wash prisoner foot rome
468	180	sherlock casting amanda abbington love interest role sherlock cast love
239	112	going florida derby louisiana derby weekend send picture
1002	187	tampa tribune pope wash foot young detainee ritual
1002	187	pope wash prisoner foot unprecedented easter ritual dubai uae news
1002	187	pope wash young offender foot holy thursday mass
1002	187	pope francis washes prisoners feet maundy thursday
468	180	photoset au meme sherlock series empty hearse return sherlock
1002	187	pope francis washes prisoners feet maundy thursday pope francis washed foot prisoner
143	112	day races thursday march kentucky derby qualifying point will saturday bot
137	157	kim kardashian maternity styles
1002	187	pope francis wash foot young prisoner
137	157	kim kardashian dress love hate filed kardashian shocked
1002	187	pope wash foot young muslim woman prisoner unprecedented twist maundy thursday
627	119	bee pesticide manufacturers propose plan aid failing
571	163	bitcoin global economy safe haven bitcoin rises cyprus crisis virtual cash hunt
468	180	sherlock holmes getglue
468	180	porque el sherlock holmes serie sherlock mi
137	157	kim kardashian maternity style attacked true rocker fergie rejected store pea
137	157	artist fashion fight pregnant kim kardashian cole mustard leather dress life gooo
592	124	dj whoo kid speaks short running police dui arrest listen
471	128	pant ill find clothes online
784	202	group jonathan amnesty boko haram president delta political network
740	180	viendo sherlock otra vez se os hudson sherlock en el study pink
471	128	good online buy clothing help
62	215	mak snow blower
1107	111	sugar output india drop drought pushing imports
522	223	dogs park school remain leash time dogs par
616	178	mcilroy text tiger losing top ranking rory mcilroy text message tiger woods tuesday
682	206	love hair dread yarn braid
137	157	kim kardashian curve hugging maternity style explained stylist nicola formichetti
565	163	bitcoin hit record exchange cyprus banking crisis peer peer virtual currency
468	180	sherlock lt
5	180	notice ted sherlock tweet time ted sherlock switching thing bit
616	178	rory mcilroy change mind set rory mcilroy lost ranking tiger woods
137	157	photo good worst kim kardashian fashion kim kardashian defends maternity fashion stating
165	147	victoria secret commercial super skinny don healthy
468	180	siempre sherlock holmes
630	129	angry bird toon
592	124	dj whoo kid speaks short running police dui arrest listen
165	147	victoria secret commercial couldn tall lt
137	157	kim kardashian major curve skintight dress nervous heel dont slip yikes
511	115	rogers
565	163	bitcoin unregulated decentralized virtual currency billion dol
31	206	yarn solar system
565	163	techcrunch bitcoin unregulated decentralized virtual currency billion dollar market
565	163	bitcoin unregulated decentralized virtual currency billion dollar market techcrunch
471	136	finished reading girl book recommend
565	163	bitcoin unregulated decentralized virtual currency billion dollar market
565	163	love bitcoin concept feeling will killed money laundering law
784	202	head state abdulsalami abubakar amnesty boko haram
218	128	urban clothing hardy death glory jeans popular clothing brand
1108	111	milk worst drought years
468	180	rocking sherlock
673	119	colony collapse video disastrous year bees
868	119	reluctant mt explosive growth roughly track rising bee death
137	157	kim kardashian pregnancy style
784	202	amnesty boko haram better understanding
137	157	kim kardashian stylist explains curve hugging maternity style
468	180	sherlock bbc ghost
616	178	tiger woods reclaims ranking shot win arnold palmer invite bay hill title
137	157	fringe benefit pregnant kim kardashian bang step leather mini skirt
565	163	bitcoin unregulated decentralized virtual currency billion dollar market techcrunch
25	223	classes puppy love learn cool dog tricks teach dog cool noo
240	141	oz fantastic film great mila kunis
565	163	bitcoin unregulated decentralized virtual currency billion dollar market
714	163	tired banksters corruption amp rigged money printing fed change gt learn bitcoins
1047	136	forward girl female noir fifty shades grey shade
565	163	major bitcoin exchange slammed denial service attack currency surge
565	163	bitcoin unregulated decentralized virtual currency billion dollar market
673	119	soaring bee deaths sound alarm malady
706	111	maharashtra water tank village help wht drought hav central fund
565	163	bitcoin red bullshit
471	128	spend money clothes invented online shopping hero
528	176	news march books book read discussion jim crow mass lexington
511	115	beautiful day neighborhood beautiful day neighbor dc rogers enjoy day
1109	119	food production risk honeybee die en environment
784	202	abdulsalami head state amnesty boko haram nigeria news
565	163	cyber thief attempting cash rising bitcoin virtual currency
784	202	abdulsalami amnesty boko haram sect nigeria military head state abdulsalami abubakar
784	202	abdulsalami amnesty boko haram sect
565	163	bitcoin currency surpasses national currencies total writes billion doll
565	163	bitcoin currency surpasses national currency
784	202	abdulsalami amnesty boko haram sect
565	163	bitcoin currency surpasses national currencies total
565	163	bitcoin virtual currency billion dollar market techcrunch
769	143	sao paulo stadium ready cup
673	119	bee deaths colony collapse disorder rise researchers point pesticides
131	128	tips keeping online transactions secure online banking shopping
706	111	shortage drought
673	119	bee deaths colony collapse disorder rise researchers point pesticides
673	119	bee deaths colony collapse disorder rise researchers point pesticides
468	180	watson sherlock holmes
673	119	bee deaths colony collapse disorder rise researchers point pesticides
565	163	bitcoin currency surpasses national currencies total
5	223	fined letting dog walk leash fck job
784	202	season nigeria amnesty boko haram pardon corrupt leader
468	180	watching elementary weird good don sherlock
673	119	bee deaths colony collapse disorder rise researchers point pesticides huffpost
53	128	buy america clothing men
784	202	abdulsalami military head state amnesty boko haram
165	147	eating victoria secret commercial slowly push plate
769	143	three stadium ready will maracan will ready shortly conf cup start
468	180	pushing gender watson woman sherlock holmes
868	119	bee death stir renewed buzz winter rough honeybee
673	119	colony collapse disorder happening
565	163	price bitcoin topped usd total virtual currency usd billion
673	119	bee deaths colony collapse disorder rise researchers point pesticides
137	157	defend kim kardashian pregnancy count don understand
565	163	bitcoin unregulated decentralized virtual currency billion dollar market
137	157	kim kardashian maternity wear kanye west baby mama lot kim kardashian se
143	112	derby opinion florida derby
769	143	tear gas brazil cup stadium police brazil tear gas smoke grenade break clash ou
549	135	going mistake darpa building real life terminators
769	143	click help tear gas brazil cup stadium police brazil tear gas smoke grenade
571	163	bitcoins amp endanger global economy bitcoins form virtual currency
143	112	derby watch point system late developing contender lexington herald leader
565	163	euro fear boost virtual currency bitcoin
471	128	muslim wedding clothes online islamic clothing store
565	163	digital bitcoin currency surpasses national currency
769	143	post injured riot cup stadium site
468	180	sherlock
468	180	vendo sherlock holmes
468	180	robert sherlock
468	180	vendo sherlock
565	163	digital bitcoin currency surpasses national currency
431	189	anterior cruciate tissue injury post surgery recovering
554	194	tomorrow national cherry blossom festival time ll
769	143	tear gas brazil cup stadium
914	196	google pay states wi fi eavesdropping truth emerges google will pay
143	112	florida derby odds florida derby odds posted expect horse sport odds
565	163	bitcoin unregulated decentralized virtual currency billion dollar market
471	128	find review suit buy online find buying
468	180	sherlock
565	163	exciting digital bitcoin currency surpasses national currency bitcoin
511	115	help child life hero fred rogers rogers
565	163	bitcoin cyberpunk will replace gold
565	163	bitcoin unregulated decentralized virtual currency billion dollar market
592	124	teen mom star arrested dui teen mom star farrah abraham lastest
784	202	flash provide alternative amnesty boko haram acf jonathan
468	180	bbc news sir arthur conan doyle sherlock holmes archive volunteer
784	202	nigeria abdulsalami abubakar amnesty boko haram
784	202	abdulsalami abubakar amnesty boko haram
137	157	showbiz kim kardashian cover growing baby bump lacy
471	128	wwe stuff online stuff online stuff buy wwe shirt
826	179	iditarod dog awaiting transport anchorage dropping race dy year dog named
137	212	kim kardashian kate middleton pregnancy style prefer question
137	157	pregnant kim kardashian talks kanye west baby kimye cosmopolitan magazine news
137	212	kim kardashian kate middleton pregnancy style prefer kate
769	143	violence brazil stadium
468	180	bbc sherlock great well highly recommend
143	112	florida derby watch final kentucky derby prep race horseracing
137	157	gossip celebritynews kim kardashian kate middleton pregnancy style kknews
137	157	maternity style special fashion style maternity
137	157	kim kardashian kate middleton pregnancy style prefer question
218	128	urban clothing hardy death glory jeans popular clothing brand
137	157	kanye allowed wear maternity clothes better fat shaming kim kardashian
468	180	lucy liu waited perfect sherlock signed cbs hit elementary
769	143	tear gas brazil cup stadium
165	147	victoria secret commercial commercial worth watching
143	112	florida derby gulfstream park racing casino
165	147	victoria secret commercial
554	185	giant panda artificially inseminated national zoo veterinarians national zoo artificially
554	185	giant panda artificially inseminated national zoo
554	185	giant panda mei xiang artificially inseminated national zoo veterinarians intervened
554	185	dtn korean news giant panda artificially inseminated national zoo veterinarians national zoo
554	185	giant panda artificially inseminated national zoo reuters link bio
554	185	giant panda artificially inseminated national zoo lifestyle
554	185	giant panda artificially inseminated national zoo reuters ctv panda artificially inseminate
554	185	zoo vet inseminate panda mei xiang news gt
554	185	giant panda artificially inseminated national zoo
137	157	gossip celebritynews snooki kim kardashian glam labor kknews
62	215	blows amp snow blowers
468	180	sherlock holmes
468	180	sherlock
165	147	hate victoria secret commercial message aint
137	157	interest kim kardashian god sake shaming pregnant woman
471	128	enjoy browsing online store putting clothes shopping feel buying addict
554	185	ready wasn vet step scientists vet artificially inseminated smithsonian national
554	185	ready wasn vet step scientists vet artificially inseminated smithsonian national
554	185	giant panda artificially inseminated
554	185	ready wasn vet step scientists vet artificially inseminated
431	164	lindsey vonn happy rehab progressing well lindsey vonn sound happy recovering
164	136	girl movie capture twisted loved
137	157	khloe kardashian loves kim maternity hollywood life kardashian
554	185	giant panda artificially inseminated national zoo veterinarians artificially inseminated mei xiang
468	180	pel sherlock holmes
554	185	panda artificially inseminated birds
554	185	panda artificially inseminated birds
554	185	panda artificially inseminated birds
62	215	month losing glass buried snow half snow blower lmao
5	180	sherlock sherlock sherlock hee dream girl hahahaha
741	113	kal penn actor hahaha xmas escape wanna watch fallen
826	179	iditarod sled dog death will lead changes race
554	185	national zoo performs mei xiang giant panda
468	180	moffat pain book caused williams john sherlock
554	185	giant panda mei xiang artificially inseminated national zoo
468	180	sherlock holmes movie series bbc sherlock
151	150	news uk london organic wine wine eco ko gmo
972	148	troika angry student protest cyprus bailout
595	206	interested yarn bomb free project idea
57	224	rise dark pool trading concerns regulators stock trade percent day con
62	401	guy going love pleasure host
62	401	guy going love pleasure host
62	401	guy going love pleasure host
62	401	guy going love pleasure host
62	401	guy going love pleasure host
62	401	guy going love pleasure host
62	401	guy going love pleasure host
706	236	marbles bitch thirsty drought water state california quench tha
706	236	marbles bitch thirsty drought water state california quench tha
706	236	marbles bitch thirsty drought water state california quench tha
706	236	marbles bitch thirsty drought water state california quench tha
706	236	marbles bitch thirsty drought water state california quench tha
1056	267	almalki news almalki intensified shelling east ukraine kill civilian soldier
706	236	marbles bitch thirsty drought water state california quench tha
706	236	marbles bitch thirsty drought water state california quench tha
706	236	marbles bitch thirsty drought water state california quench tha
706	236	marbles bitch thirsty drought water state california quench tha
706	236	marbles bitch thirsty drought water state california quench tha
706	236	marbles bitch thirsty drought water state california quench tha
1056	267	almalki news almalki intensified shelling east ukraine kill civilian soldier
62	401	guy going love pleasure host
1056	267	almalki news almalki intensified shelling east ukraine kill civilian soldier
1110	371	remember kitt futuristic selfdriving function reality
706	236	marbles bitch thirsty drought water state california quench tha
706	236	marbles bitch thirsty drought water state california quench tha
11	344	easier iran fund terrorism
706	236	marbles bitch thirsty drought water state california quench tha
11	344	easier iran fund terrorism
11	344	bad deal will iran nuclear weapon
62	401	guy going love pleasure host
706	236	marbles bitch thirsty drought water state california quench tha
521	246	merkel greek debt relief
11	344	ir americans bragging domestic problem claim barred iran nuclear weapon http
11	344	iran news congress receives iran nuclear agreement state department
1058	439	bolton fan raise sign adam fondre current total read
1058	439	bolton fan raise sign adam fondre current total read
1058	439	bolton fan raise sign adam fondre current total read
7	362	official bloomin monday free bloomin onion purchase
1056	267	almalki news almalki intensified shelling east ukraine kill civilian soldier
1056	267	almalki news almalki intensified shelling east ukraine kill civilian soldier
1056	267	almalki news almalki intensified shelling east ukraine kill civilian soldier
1058	439	bolton fan raise sign adam fondre current total read
1056	267	almalki news almalki intensified shelling east ukraine kill civilian soldier
1056	267	almalki news almalki intensified shelling east ukraine kill civilian soldier
1058	439	bolton fan raise sign adam fondre current total read
73	267	three killed fresh fighting ukraine pro russian rebel government confirmed death sunda
1111	254	friendly chat barbecue replaces intens cancer
838	262	lost stephen colbert interactive game escape man sized cabinet
124	409	ish year kid holding airport security body scanner
1112	265	stowaways crimes aboard scofflaw ship continuing saga international shipping high sea
11	344	seeks concerns iran
876	236	con pastor jim blame obama iran deal california drought second coming christ
1067	434	forty single score hr tie team usa inning panam
67	344	soraya house lawmaker expressing disapproval cnn iran
1113	391	ice rainfall drive rapid melt flow greenland ice sheet
521	246	robert reich goldman sachs profited greek debt bank profit debt
664	344	iran will united nations security council vote monday
11	344	deal financial lifeline iran will pocket badirandeal
876	344	devastating facts obama iran nuclear deal breitbart
11	344	easier iran fund terrorism
11	344	brazil iran series attack evin gohardasht prison aftermath nuclear deal bahamas
706	236	california water indigenous bird flying ancient route drought
498	392	number northern forest fire july
664	344	vote iran nuclear deal irks congress security council will hold
11	344	pentagon chief iran nuclear deal prevent military option
1063	278	mrholmes ian mckellen fine complicated holmes holmes louisiana usa
706	236	course california time rain drought
1063	278	holmes mrholmes ian mckellen fine complicated holmes update california usa tho
1064	267	ukraine cyberattack russia tension rise
706	236	wpost california drought quest water consuming grind
876	344	admiral ace lyons iran nuclear deal suicide stopthebomb pjnet tcot
1067	434	watching panam boxing general motors centre panamgames
521	246	greece cash crisis hurt funeral industry
11	344	israeli minister iran deal protecting iran sabotage nuclear program htt
11	344	krystin congress receives iran nuclear agreement state department ap persian
468	278	sherlock holmes family man holmes film predicted
521	246	merkel greek debt relief
11	344	roll obama iran nuclear deal iraq mumbai interfax
1114	434	underway argentina puerto rico lock horn battle place panamgames
876	344	vote iran nuclear deal irks congress york times
1063	278	bees aging sherlock ian mckellen perfect mrholmes
11	344	alternative iran nuclear deal kerry washington post
11	344	congress considers iran deal politics nuclear geopolitics russia
1056	267	almalki news almalki intensified shelling east ukraine kill civilian soldier
11	344	nuclear iran reasons iaea task nuclear agreement iran
11	344	nuclear iran reasons iaea task nuclear agreement iran
461	344	will republicans block iran deal
134	331	excited cover event
265	371	google driving car accident involving injury
39	366	remember time andy carried top mount everest
838	262	neil degrasse tyson tells stephen colbert earth shouldn real planet
49	331	special olympics event test brain
11	344	iran military option remains military action prevent iran developing nuclear
1067	434	maryland native josh started usa panam gold medal game canada tonight ip bb pitch strike
706	236	california drought lol
11	344	iran military option remains military action prevent iran developing nuclear
11	267	ukraine rebel small weapon
521	246	bbc news greek debt crisis banks reopen three week shutdown bbc news greek bank set reopen
521	246	google news greek debt crisis banks reopen three week shutdown bbc news
1067	434	happy face podium toronto great pan american games gold teamusa
914	371	google cars avoid rear accidents
34	242	saudi jet flying sanaa sanaa yemen
1115	432	live watching sunset southdakota editor roadtrip
45	344	best iran deal deal needed iran thing handed
11	344	vienna iran series attack evin gohardasht prison aftermath nuclear deal china
3	383	online dating article category
153	324	perth train passenger satisfied rail commuter australia survey passengers perth train
876	344	happy beautiful nuclear agreement iran place supporter opponent
34	242	saudi jet flying sanaa sanaa yemen
876	344	senator menendez obama administration red lines iran green lights irantalks irantalksvienna
1067	434	amazing win win teamcanada win panamgames
1067	434	crazy finish baseball gold medal game congrats team canada panamgames
1067	434	canada beat inning win gold medal men baseball panamgames
74	284	day call telling stolen bank spent large amount money
125	344	don agreement real
1047	359	book news el james releasing fifty shades grey book christian grey point view
1067	434	canada celebrates gold medal pan ams
1067	434	continues hometown helping teamusa men freestyle squad medal panam game http
1067	434	happened canada top panamgames baseball gold medal teamc
972	246	greek crisis test german will defend euro zone real deal south florida press release registration
1116	434	mexico lot better offense scored penalty kick concacafgoldcup panama goldcup
1067	434	happened canada top panamgames baseball gold medal teamc
265	371	robot car acre city michigan driving skill
210	354	nyt review harper lee novel set watchman
105	391	polar bear metabolism cope ice loss tech science iot
1067	434	team canada win gold baseball pan game baseball
11	344	congress receives iran nuclear agreement state department mumbai iran reuters
521	246	goldman sachs profited greek debt crisis
1067	434	canada won panamgames baseball gold pitcher pulled vintage carlos
79	344	iran mullah irantalks irantalksvienna usa news mtp nyc uk pic twitter
1056	267	almalki news almalki intensified shelling east ukraine kill civilian soldier
1117	331	discusses specialolympics cnn
210	354	nyt review harper lee novel set watchman
1067	434	gold canada bear usa extra inning win panamgames baseball gold medal gocanadago http
210	354	nyt review harper lee novel set watchman
1118	267	heavy shelling resumes rebel held ukrainian city donetsk generalnews
1119	384	baltimore mayor scope severity duration riots arson city burning
521	246	greek bank reopen today three week shutdown greek bank ready open branch
88	265	bro wid indian board st time ship frm turkey ago ship seized spanish police
283	254	cancer survivors reaction lance health
914	371	google cars avoid rear accidents
239	265	totally cruise storm
265	371	google driving car accident involving injury
11	344	fox news iran deal will hard sell congress irantalks irantalksvienna usa uk
70	384	fire jersey city leaf people homeless jersey city blaze ripped story family
521	246	greek debt crisis banks reopen three week shutdown
79	344	iran purchase amp nuclear tech amp fuel energy amp uranium enrichment guarantee dark future iran
521	246	greek debt crisis banks reopen three week shutdown
876	344	pave lifting sanction iran security council adopt resolution monday tha
74	362	knew ate outback
79	344	good deal dismantle iran nuclear infrastructure exchange dismantling sanction
7	362	official bloomin monday free bloomin onion purchase
105	391	buried headline bbc news polar bear fail adapt lack food warmer arctic
1073	326	massachusetts grill uber disability access engadget tech
528	265	good read ship life
838	262	stephen colbert fucking disappointed
79	344	good deal dismantle iran nuclear infrastructure exchange dismantling sanction
1074	242	girl killed saudi warplane night mom child yareem ibb yemen
123	243	launch civil probe fifa bribery case report fifa
11	344	congress receives iran nuclear agreement state department aljazeera usa
418	432	fulfilled life long dream picking president mount rushmore nose today
1120	400	ready kick ur thrive lifestyle mix simple smoothie lots probiotic
1076	243	fifa scandal webb pleads guilty fifa vice president jeffrey webb pleaded guilty saturday federal racketeering
11	344	eskandar congress receives iran nuclear agreement state department lemonde london
7	362	official bloomin monday free bloomin onion purchase
1067	434	canada win pan baseball gold wild finish toronto star
1076	243	jeffrey webb pleads guilty racketeering federal court articles
876	344	sanctions going collapse forced negotiate iran changing global
876	344	admiral ace lyons iran nuclear deal suicide stopthebomb pjnet tcot
59	284	starbucks mobile app hacker drain bank account identitytheft idtheft
741	246	bid copy cat amp greece real crisis deadline arrives ecb debt pay
1121	357	mushroom negative symptom
7	362	official bloomin monday free bloomin onion purchase
1064	267	russia force move ukraine frontline donetsk
1122	262	lateshow authentic late david letterman stage east river set piece
521	246	surprise surprise goldman sachs profited greek debt crisis
521	246	greek debt crisis germany consider debt relief bbc news
521	246	greece bank reopen three week limited cash withdrawal offered
521	246	greek bank reopened bbc reporter explains daily withdrawal limit changed day week
1123	253	family set basic life insurance trust disabled heir trust flawed
876	344	security council vote iran nuclear deal
876	344	iran agreement boosts peace defeats neocons latest column
1076	243	fifa corruption scandal webb pleaded guilty
210	354	harper lee harperlee set watchman harper lee digested read indiana usa indiana
1076	243	fifa corruption scandal webb pleaded guilty
1124	246	prediction assuming govt doesn mess greece will form debt relief portugal spain elect
1076	243	fifa corruption scandal webb pleaded guilty
1056	267	almalki news almalki intensified shelling east ukraine kill civilian soldier
210	354	harper lee harperlee set watchman harper lee digested read indiana usa indiana
1076	243	fifa corruption scandal webb pleaded guilty
521	246	greek debt crisis germany consider debt relief bbc news
11	344	congress receives iran nuclear agreement state department london politics
1056	267	almalki news almalki intensified shelling east ukraine kill civilian soldier
83	236	sign aid station estimated people going well water cadrought http
11	344	congress receives iran nuclear agreement state department fox egypt persian
521	246	greek debt crisis banks reopen three week shutdown
521	246	goldman sachs profited greek debt crisis
11	344	congress reject bad iran nuclear deal better deal action
521	246	greek bank ready open monday merkel urge swift bailout talk athens reuters greek bank ready
876	344	iran irandeal security council expected approve iran nuclear deal voa uniteblue tcot
658	254	depression real talk
734	265	blue whale struck amp killed ship california state isn thing
521	246	ecb raise greek bank funding eurozone bridge loan
11	344	congress receives iran nuclear agreement state department lemonde iran
572	305	outrage american museum natural history plan expand park york post
11	344	set endorse landmark deal iran major power rein iranian nuclear program
105	391	polar bear fail adapt warmer arctic implications future specie grim
521	246	greek bank reopen three week shutdown long expected greek bank reopen
1056	267	civilians dying shelling amid ukraine ceasefire
876	344	admiral ace lyons iran nuclear deal suicide stopthebomb pjnet tcot
521	246	greek bank reopen service change weekly withdrawal limit
1125	400	probiotics probiotics
130	362	vivian review outback steakhouse hill yelp
521	246	greece latest greek bank reopen tsipras eye return normal
1073	326	uber ripped ad blitz wheelchair access
11	344	congress receives iran nuclear agreement state department persian cnn
706	236	drought frightening
904	434	pan american games toronto group finals brazil united states
468	278	holmes fictional account sherlock holmes real man star
11	344	congress receives iran nuclear agreement state department iran abc fox
521	246	breaking greek bank reopen three week shutdown capital restriction bank customer
1076	243	fifa rival prince ali blatter leave fifa presidential candidate urged football
161	254	treat depression hours
11	344	real reasons iran agreement
521	246	greek debt crisis bank reopen stock market closed live update greece bank branch open
153	439	target thing team late wanderers
1126	236	classic california raining cadrought
876	344	irandeal amb speak senate briefing role congress keeping iran nuclear bomb blockthebomb
39	243	football mps probe fifa scandal british mps launch investigation teamfollowback
39	243	mps probe fifa scandal british mps launch investigation ongoing fifa scandal
11	344	netanyahu iran obama congress president obama nuclear deal iran israel uhf
521	246	bbc news greek debt crisis banks reopen amid tax rise
741	246	greece real crisis deadline arrives ecb debt pay
39	243	mps launch investigation fifa corruption scandal
1127	419	horseracing excited prospect snow ascot pat lookin
521	246	ecb imf central bank covered greek payment bbg
1063	278	holmes mrholmes ian mckellen fine complicated holmes
521	246	greek debt crisis bank reopen stock market closed live update
11	344	congress receives iran nuclear agreement state department lemonde news politics
210	366	raw video mt everest base camp hit avalanche watch
876	344	online conference amp iran nuclear ambitions agreement violation prospects amp challenges mtp
11	344	bad deal will iran nuclear weapon
79	344	good deal dismantle iran nuclear infrastructure exchange dismantling sanction
124	409	bangkok increased security measure don causing long delay departing passenger
876	344	en week deal nuclear agreement spark reaction
418	409	trip clt tsa pre check adventure standard item stl yesterday flagged today
210	354	harper lee harperlee watchman solves mystery harper lee
521	246	breaking news greece initiated payment procedure billion euro ecb imf official
1058	439	bolton fan started online campaign sign adam fondre
521	246	breaking news greece initiated payment procedure billion euro ecb imf official
11	344	iran nuclear conclusion bad israel presidential candidate islam times republican
521	246	breaking greece initiated payment procedure billion euro ecb imf official reuters
876	344	live security council vote iran nuclear deal
90	243	fifa set election blatter successor
265	371	google reveals accident year involving driving car google driving news
124	409	count lipstick liquid uk airport tsa don
706	236	california drought wears starts lose trees
3	383	dating advice women
11	344	iran foreign minister mohammad javad zarif criticizes israel threat military action
1067	434	happened canada top panamgames baseball gold medal teamc
876	344	online amp iran nuclear ambitions agreement prospects amp challenges iranfreedom http
1058	439	bolton fan started online campaign sign adam fondre
1076	243	fifa meeting focus overhauls wake scandal
838	262	stephen colbert released free video game play browser
70	439	expected high demand call bolton ticket phone staff answered call
265	371	programming driving car choice btw killing child avoid accident
1076	243	fifa meeting focus overhauls wake scandal
265	371	google driving car hit surprisingly driver design week
521	246	german chancellor angela merkel rule haircut greek debt
876	344	europe iran nuclear deal signal congress
521	246	greek banks reopen three bailout crisis greece tech
79	344	nuclear deal will change iran relation supreme leader
1058	439	bolton fan raise sign adam fondre current total read
521	246	greek crisis big unhappy eu family
4	344	expected lifting economic sanction iran government will protect local industry
8	236	solution california drought eat beef don wash video environment
240	401	day knockknocklive premiere tomorrow
876	344	security council set approve iran nuclear deal
62	243	blatter live fifa latest sport news
498	391	studying antarctic ice mass balance solar activity royal
664	344	eu endorses iran nuclear deal power diplomat news
1076	243	bbc news fifa corruption jeffrey webb pleads guilty
124	409	don airport cancelled strict security measure caused chaos
521	246	europe response greek debt crisis exposed deep eu
103	254	depressed find god secret fighting depression
876	344	iran agreement correcting monumental errors bush era
904	384	firefighters tackle arson attack south yorkshire
79	344	iran nuclear deal exactly iran enriched uranium
572	305	outrage american museum natural history plan expand park
1128	254	depression facts seriousness depression
706	236	amid epic drought california farmer turn water witch
521	246	bbc news greek debt crisis banks reopen amid tax rise socialist update
838	262	stephen colbert adventure game yup
11	344	iran nuclear deal set endorse landmark agreement cbc
1074	242	yemenis killed fresh saudi raid
521	246	german rethink greek debt relief reality check germany greece obama legacy
1058	439	bolton fan raised sign adam fondre
876	236	lightning spark wildfire sierra wildfire california drought sierra nevada
11	344	post zarif lash making military threat iran despite nuclear deal
1058	439	bolton fan raised sign adam fondre
501	400	gi tract bacteria protect autoimmune disease health
876	344	security council vote wait congressional review period iran irantalks irannucleardeal
521	246	greek bank reopen restriction amid tax increase greece cash crisis creates funeral fa
1076	243	fifa meeting focus overhauls corruption scandal sepp blatter group
1076	243	newyork news fifa meeting focus overhauls corruption scandal sepp blatter group
467	432	kicked mt rushmore
521	246	imf move greek debt relief imf official
1129	384	fire inspector scene walter lane house fire reported injury investigation
1130	400	evidence probiotic diet contribute stable emotion amp positive behavior htt
521	246	merkel hints debt relief greece review
1131	265	ship barge collide ship channel
11	344	bad deal will iran nuclear weapon
826	400	dog scratching win summer supply
79	344	tv iran nuclear head negotiating country nuclear head
11	344	nuclear iran reasons iaea task nuclear agreement iran
11	344	nuclear iran reasons iaea task nuclear agreement iran
1076	243	february fifa election fifa will hold extraordinary congress elect president
1076	243	fifa will select president february soccer governing body rocked corruption scan
1067	434	st canadian cyclist win panam gold medal sullivan kate brien cbcpanam
521	246	people greek crisis coming years
1076	243	fifa meeting focus overhauls corruption scandal sepp blatter group departing president
1058	439	bolton fan raised sign adam fondre
1076	243	fifa will select president february soccer governing body rocked
49	331	india sending athlete special olympics amp video amazing ht
79	344	iran decision nuclear ambition exchange economic relief rational
1076	243	europe will fifa cup will happy move fifa longer corrupt
1067	434	cuba walk pan bronze baseball pan american games men baseball bronze medal going bac
265	371	google driving car involved minor accident time injury
4	344	iran gov will set policy protect local industry lifting sanction
210	354	london upset set watchman atticus finch read atticus finch wrote proxy comparison
131	284	ten things identity theft taxes irs
4	344	news gt gt unanimously pass resolution paving lift economic sanction iran
181	243	finally cocacola call independent commission reform fifa corruption worker
521	246	greek bank reopened today daily cash withdrawal limit euros relaxed greece athens
219	439	icymi set join loan club agreed deal bwfc
876	344	watch proposed nuclear agreement iran lead unacceptable consequence america ally
706	236	faced drought california farmers recycled wastewater copyright npr visit
1132	326	dc companies suspended meeting accessibility deadline
876	236	ass kicking scotus boehner blames obama california drought tcot
1076	243	fifa meeting focus overhauls wake scandal
521	246	greek debt crisis banks reopen amid tax rise
521	246	public debt crisis austerity deflation case greece free content review economics
1133	265	ships intentionally dump oil year bp disaster combined
876	344	iran sanctions security council wake nuclear deal politics
876	344	security council unanimously endorses iran nuclear agreement
876	344	security council vote lift sanction iran nuclear accord reached week ht
1076	243	excited fifa meeting sepp blatter secure northkorea cup
521	246	greek debt crisis greece repaying ecb imf bank reopen live greece bank branch open time
1076	243	excited fifa meeting sepp blatter secure northkorea cup
521	246	greece repaying ecb imf banks reopen
1076	243	scandal hit fifa pick blatter successor february fifa will hold presidential election feb
210	354	set watchman raw publishing fraud novel ur money
521	246	greek bank reopen merkel call quick negotiation debt relief
479	254	medical marijuana helped survive cancer treatment
1134	389	forms printed clinton foundation planned parenthood baby body parts order forms
876	344	endorses iran nuclear agreement pakistan
1076	243	case missed lee nelson gatecrashed fifa conference threw money sepp blatter
876	344	moves lift sanctions iran nuclear deal york times york times iran
876	344	total agreement dismantle iran
1076	243	case missed lee nelson gatecrashed fifa conference threw money sepp blatter
1076	243	excited fifa meeting sepp blatter secure northkorea cup
1076	243	blatter will candidate fifa president
1076	243	case missed lee nelson gatecrashed fifa conference threw money sepp blatter
664	344	endorses iran nuclear deal power united nations ap security council
1076	243	excited fifa meeting sepp blatter secure northkorea cup
876	344	endorses iran nuclear agreement measure unanimously adopted security council clear path lifting
1076	243	fifa presidential election february scandal plagued sepp blatter will month power fifa
11	344	iranian startups embrace landmark agreement negotiator deal iran nuclear
1076	243	comedian simon brodkin throw banknote fifa sepp blatter fifa soccer football sportsbiz
595	434	fantastic love panams
1076	243	excited fifa meeting sepp blatter secure northkorea cup
1076	243	excited fifa meeting sepp blatter secure northkorea cup
1076	243	excited fifa meeting sepp blatter secure northkorea cup
1135	287	alright vatican tapes click
876	344	spot iran khamenei holding speech nuclear deal blaze tcot
1076	243	excited fifa meeting sepp blatter secure northkorea cup
1076	243	comedian simon brodkin throw money sepp blatter fifa media event fifa
1076	243	excited fifa meeting sepp blatter secure northkorea cup
1076	243	case missed lee nelson gatecrashed fifa conference threw money sepp blatter
1076	243	funnier corruption moment banknote thrown sepp blatter today fifa video gt
1076	243	excited fifa meeting sepp blatter secure northkorea cup
49	331	special olympics georgia athletes compete special olympics games
1076	243	sepp blatter showered dollar bill fifa meeting british comedian rain fifa
1076	243	fifa elect president february zurich football governing body fifa monday
31	371	opinion increase life electric car driverless autonomous
1076	243	comedian lee nelson throw banknote sepp blatter fifa
1076	243	comedian lee nelson throw banknote sepp blatter fifa
105	391	polar bear metabolism cope ice loss
1076	243	excited fifa meeting sepp blatter secure northkorea cup
265	371	google driving car crash accident settlement
1076	243	excited fifa meeting sepp blatter secure northkorea cup
1076	243	comedian lee nelson throw banknote sepp blatter fifa
706	236	california water regulator order farmer pumping river
1076	243	comedian lee nelson throw banknote sepp blatter fifa
1076	243	excited fifa meeting sepp blatter secure northkorea cup
1076	243	excited fifa meeting sepp blatter secure northkorea cup
1076	243	excited fifa meeting sepp blatter secure northkorea cup
1076	243	comedian lee nelson throw banknote sepp blatter fifa
1076	243	excited fifa meeting sepp blatter secure northkorea cup
1076	243	comedian lee nelson throw banknote sepp blatter fifa
1076	243	comedian lee nelson throw banknote sepp blatter fifa
1076	243	comedian lee nelson throw banknote sepp blatter fifa
1073	326	smashed pot wheelchair access path rained heavily expected provide proof
79	344	iran isn hide fact ll advantage sanction relief arm terrorist htt
1076	243	comedian lee nelson throw banknote sepp blatter fifa
876	344	watch proposed nuclear agreement iran lead unacceptable consequence america ally
1076	243	excited fifa meeting sepp blatter secure northkorea cup
1076	243	excited fifa meeting sepp blatter secure northkorea cup
1076	243	excited fifa meeting sepp blatter secure northkorea cup
1076	243	comedian lee nelson throw banknote sepp blatter fifa
11	344	iran news congress receives iran nuclear agreement state department
1076	243	comedian lee nelson throw banknote sepp blatter fifa
876	344	endorses iran nuclear agreement ajenews
706	236	drought stricken california burning flooding time
876	344	endorses iran nuclear deal relax sanction security council unanimously adopted resolution
1076	243	excited fifa meeting sepp blatter secure northkorea cup
876	344	security council vote lift sanction iran nuclear accord reached week ht
876	344	endorses iran nuclear deal powers security council unanimously endorses nuclear deal iran
1076	243	excited fifa meeting sepp blatter secure northkorea cup
521	246	imf confirms greece repaid roughly billion euro longer arrears global monetary
247	432	visited american treasure southdakota
1076	243	blatter didn wasn aware money corrupt fifa
1076	243	excited fifa meeting sepp blatter secure northkorea cup
1076	243	comedian lee nelson throw banknote sepp blatter fifa
265	371	google driving car injury crash driver fault selfdrivingcar
1076	243	fifa taskforce address corruption fifa will set man taskforce clean football governing body
1076	243	comedian lee nelson throw banknote sepp blatter fifa
1076	243	excited fifa meeting sepp blatter secure northkorea cup
86	432	travel secrets trip exciting
1076	243	excited fifa meeting sepp blatter secure northkorea cup
1076	243	excited fifa meeting sepp blatter secure northkorea cup
1076	243	sepp blatter showered cash fifa press conference video fifa president sepp blatter showered
1067	434	stanford carol win gold medal tennis pan ams
1074	242	yemenis killed fresh saudi raid
521	246	greek debt resolution simply example government kicking road read
1067	434	ready pan american games toronto
876	344	missing link irandeal irantalks irantalksvienna
1076	243	comedian lee nelson throw banknote sepp blatter fifa
1076	243	comedian lee nelson throw banknote sepp blatter fifa
62	401	guy going love pleasure host
1076	243	excited fifa meeting sepp blatter secure northkorea cup
521	246	remains beautiful greek debt profile chart
1076	243	comedian lee nelson throw banknote sepp blatter fifa
97	371	don critics detract facts driving cars future big
1076	243	excited fifa meeting sepp blatter secure northkorea cup
8	236	solution california drought eat beef don wash
1096	371	ford headlights spot turn illuminate hazards night driving smart car yea
1096	371	ford headlights spot turn illuminate hazards night driving smart car
521	246	clear week bn loan greece going bn imf bn ecb bn greek centrum
1076	243	excited fifa meeting sepp blatter secure northkorea cup
265	371	fake town michigan driving car tested mcity
240	401	day left premiere knockknocklive gonna making lot people happy watch tuesday
240	401	day left premiere knockknocklive gonna making lot people happy watch tuesday
240	401	day left premiere knockknocklive gonna making lot people happy watch tuesday
240	401	day left premiere knockknocklive gonna making lot people happy watch tuesday
240	401	day left premiere knockknocklive gonna making lot people happy watch tuesday
131	284	police bust identity theft ring orlando victim orlando identity theft ring ended week
240	401	day left premiere knockknocklive gonna making lot people happy watch tuesday
240	401	day left premiere knockknocklive gonna making lot people happy watch tuesday
131	284	police bust identity theft ring orlando victim orlando news
1076	243	comedian lee nelson throw banknote sepp blatter fifa
1076	243	comedian lee nelson throw banknote sepp blatter fifa
1136	416	artwork happiest sitting front tate britain
240	401	day left premiere knockknocklive gonna making lot people happy watch tuesday
1067	434	watch baseball yr amp championship deciding game panam gold medal game
706	236	nestle ceo profit drought nestle
511	400	probiotic life microbiome documentary
521	246	clear week bn loan greece going bn imf bn ecb bn greek centrum
1067	434	canadian flag canada cbn panam
240	401	day left premiere knockknocklive gonna making lot people happy watch tuesday
521	246	greece repayment billion euros longer default greece repaid arrears international monetary fun
1137	366	bat bharat late tenzing norgay indian scale mount everest share post viral
12	236	liar scientist boehner blames california drought president obama tcot
1076	243	blatter better money blatter fifa
1138	284	irs putting people risk identitytheft pjnet iartg
210	354	harper lee set watchman break record
1139	392	icymi fire lake closure wildfire
97	371	study people don autonomous cars driving
105	391	polar bears trouble thought news
210	354	fx forex trading harper lee set watchman break record
418	432	day week long trip south dakota wonderful trip swing thing picnic
210	354	set watchman sell copy canada
240	401	day left premiere knockknocklive gonna making lot people happy watch tuesday
11	344	catholic endorse iran nuclear treaty
1076	243	excited fifa meeting sepp blatter secure northkorea cup
3	391	arctic cold summer brings melt
73	243	andrew call revolution sunil soccer investigative reporter football
265	371	america google driving car rear ended accident involving injury
876	344	endorses iran nuclear agreement measure unanimously adopted security council clear path ajnews
240	401	day left premiere knockknocklive gonna making lot people happy watch tuesday
1076	243	excited fifa meeting sepp blatter secure northkorea cup
210	354	harper lee set watchman novel sell week novel news dna
1076	243	jeffrey webb top fifa official pleads guilty corruption case
1076	243	excited fifa meeting sepp blatter secure northkorea cup
210	354	set watchman sold copy week mashable tech
210	354	mashable set watchman sold copy week set watchman hit bookstore
210	354	suryaray surya suryaray surya set watchman sold copy
210	354	set watchman sold copy week set watchman hit bookstore
1076	243	excited fifa meeting sepp blatter secure northkorea cup
167	434	info check video buy ticket
1076	243	excited fifa meeting sepp blatter secure northkorea cup
876	344	ajenews security council unanimously endorses iran nuclear agreement
876	344	iran deal endorsed security council
1076	243	comedian lee nelson throw banknote sepp blatter fifa
210	354	set watchman sold copy week set watchman hit bookstore
210	354	set watchman sold copy week
210	354	set watchman sold copy week set watchman hit
1076	243	excited fifa meeting sepp blatter secure northkorea cup
62	401	guy going love pleasure host
1076	243	excited fifa meeting sepp blatter secure northkorea cup
876	344	starts path lifting iran sanctions
