14	212	kate middleton maternity dress royal baby bump starting fashion
1578	124	carlos arrested drunk driving sentenced month prison guilty
104	222	oz great powerful open theater today read review
104	141	oz great powerful review sam raimi delivers plenty awe wonderful oz prequel
904	215	dad boston work snowblower mom shovel driveway
104	222	unlocked oz great powerful opening weekend sticker getglue
1582	174	methuselah star older universe hubble telescope data space
175	184	analysis founder help survive caracas reuters hour hugo chavez
916	201	higgs boson update cool exists exotic prominent musician
916	201	higgs boson update cool exists exotic prominent musician
904	215	friend snow storm sending virtual snow blower amp
916	201	higgs boson update cool exists exotic
175	168	gawker assassinated hugo chavez cancer
175	168	teamfollowback assassinated hugo chavez cancer venezuelan leader hugo chavez
916	201	technology higgs boson update cool exists exotic
14	212	kate middleton maternity dress shopping london pregnant duchess cambridge stopped fav
916	201	god particle god higgs boson update cool amp exists exotic
886	180	education watson series lesson greatest sherlock holmes dr watson
893	216	women gestational diabetes greater risk type diabetes
884	161	printed skull implant ready operation
110	121	talking mooc well elearning agreement coursera
893	216	women gestational diabetes greater risk type diabetes
1075	136	good girl
1212	124	rob ford guilty drug possession dui disorderly acc find hard
175	184	gather chavez funeral leader gather venezuelan capital caracas funeral pr
904	215	life suck dad work mom work snow blower broken help
76	205	egypt police withdraw port egyptian military security duty police
1672	154	harvard medical school study pathway findings identify universal mechanism
25	153	oscarpistorius bail condition
916	201	higgs boson update cool exists exotic
36	193	bulgarian political crisis threaten
110	121	moocs designed classroom learning
175	184	hugo chavez funeral venezuelan president latin american leader well iran mahmoud
904	215	hubby job snow blower lol
25	153	pistorius fight bail condition
884	161	patient doesn happy printed skull patient head
1107	217	papal conclave elect pope will tuesday march vatican
25	153	oscar challenge bail condition sayin allowed travel gonna ge tht
76	205	thousands march egypt port death port egypt reuters thousands egyptians packed
1308	154	anti aging secret red wine red wine slow aging process study published sc
1086	197	judging photo ve watching harry crane going enjoyable upcoming season mad men
1203	170	abortion don don tony mendez argo
1107	217	cardinals set conclave elect pope cbs news cbs set
104	141	james franco mila kunis oz
884	161	dude percent skull replaced printed replica
1107	217	cardinals set conclave elect pope cbs news top news
31	146	foods products will carry gmo labeling
605	140	reburial king richard iii
1493	161	diyrockets sunglass launch competition create printed rocket engine
1493	161	sunglass partners diyrockets launch printed rocket engine design competition tech technology
25	153	pistorius challenge bail condition
1493	161	post sunglass partners diyrockets launch printed rocket engine design competition
8	174	hubble telescope oldest star methuselah billion year hubble telescope oldest
1493	161	competition best printed rocket engine launches today tech
904	215	teaching andrew snowblower safely clearing neighbor driveway
904	215	suck fucking snow blower normal house england hahahah
1493	161	sunglass partners diyrockets launch printed rocket engine design competition
904	215	snow blower
916	201	hopes fade higgs particle opening door
33	123	curiosity solar flare
916	201	higgs boson update cool exists exotic
175	168	imagine martyrdom chavez assassinated induced cancer decision evil
904	215	clutch snow blower morning
1086	197	mad men set pics love
884	161	dude percent skull replaced printed replica tech
31	146	foods gmo labeling mandatory
104	222	unlocked oz great powerful opening weekend sticker getglue
36	220	pranab mukherjee visit bangladesh shahbag protest continue
36	220	pranab mukherjee visit bangladesh shahbag protest continue
31	146	foods vow label genetically modified food
884	161	printed implant replaces percent patient skull big move printed medical implant pa
36	220	pranab mukherjee visit bangladesh shahbag protest continue
1084	180	woot sherlock series three filming march
31	146	gmo labeling coming foods market
1086	197	mad men starts april set
104	141	wanna wizard oz movie mila kunis
884	161	patient percent skull replaced printed prosthetic
886	180	bbc sherlock serie mar vi
1104	133	norovirus outbreak strikes cruise ship skynews norovirus outbreak strikes
8	174	hubble finds birth certificate oldest star
886	180	watching sherlock johnny lee miller holmes lucy liu watson jones
14	212	pregnant kate middleton reveal girl hear video proof
31	146	foods products will carry gmo labeling
104	222	unlocked oz great powerful opening weekend sticker getglue
1303	143	soccer maracana will ready month brazilian official
904	215	hard work work gotta invest snow blower tho
31	146	foods gmo labeling mandatory
1107	217	pope catholic cardinal vote secret election conclave elect pope tuesday
48	195	question argo won oscar
1107	217	pope catholic cardinal vote secret election conclave elect pope tuesday
31	146	fr amid genetically modified foods controversy grocery store announces will label gmos
886	180	love sherlock elementary type yr
31	146	mad prop commitment gmo labeling cc amp
31	146	gmo labeling coming foods market foods market
884	161	patient cent skull replaced dd printed implant
241	206	yarn bombing call artists
110	121	thomas friedman wrong moocs essay inside higher
110	121	researchers explore moocs drop inside higher
31	146	foods products will carry gmo labeling
884	161	patient percent skull replaced printed prosthetic
891	126	waiting worldwide statement international woman day pitbull job gonna call
31	146	gross foods label genetically modified product
828	133	royal caribbean cruise ship hit virus sick reuters royal caribbean cruises friday tha
104	141	mila kunis james franco film holy crap hormone
31	146	grocery chain require labels genetically modified food foods retailer country
31	146	grocery chain require labels genetically modified food foods retailer country
104	222	unlocked oz great powerful opening weekend sticker getglue
31	146	grocery chain require labels genetically modified food
1494	196	google nears settlement wifi snooping
1609	209	russian model hotter ton meteorite chelyabinsk
31	146	foods require labels genetically modified food
1494	196	google nears settlement wifi snooping google
1494	196	google nears settlement state wifi incident source reuters google
104	141	box office report early oz returns point friday updated wizard oz origin pi
104	222	unlocked oz great powerful opening weekend sticker getglue
1494	196	ap source google pay settle wi fi case
907	135	real estate news weekend robot dog landfill landscape chair melt ve
25	153	pistorius challenge bail condition lawyer argue pistorius flight risk
1494	196	news google close settling street view investigation smallbiz
884	161	printing reaches medicine man replaces percent skull international business times
886	180	star wars casting news wait hear casting benedict cumberbatch lord sherlock khan
1494	196	ap source google pay settle wi fi case
884	161	man skull replaced printed implant
175	184	news venezuela hold hugo chavez state funeral bbc news bbc hold hugo chavez state funeral
828	133	royal caribbean cruise ship hit virus sick reuters share friends health top stories
104	222	oz gr amp powerful http oz great powerful going huge weekend tb
1494	196	ap source google pay settle wi fi case
104	141	going baby mila kunis oz tonight
172	124	rick springfield arrested missing court todd
890	123	calm solar storm nasa warns unexpected happening sun
884	161	printed implant replaces percent patient skull
1454	128	spending evening online summer clothes
104	222	photo unlocked oz great powerful opening weekend sticker getglue
886	180	writer cbs series elementary lucy liu asian person york ve
104	222	pant booty oz great amp powerful opens
1303	143	soccer maracana will ready month brazilian official yahoo sports rio janeiro march
31	146	feed foods require labels genetically modified food foods retailer coun
1494	196	google pay state street view data collection
104	222	unlocked oz great powerful opening weekend sticker getglue
31	146	foods plan gmo disclosure label
1494	196	google fined accidental street view car wi fi google approaching settlement wi fi
104	222	oz great powerful worth time oz great powerful wizard oz prequel directed
104	222	oz great powerful worth time oz great powerful wizard oz prequel directed
104	222	oz great powerful worth time oz great powerful wizard oz prequel directed
104	222	oz great powerful worth time oz great powerful wizard oz prequel directed
104	222	oz great powerful worth time oz great powerful wizard oz prequel directed
104	222	unlocked oz great powerful opening weekend sticker getglue
884	161	skull replaced printed prosthetic
1494	196	google pay settle wi fi spying case state source google accidentally
1107	217	papal conclave march benedict successor vatican city college cardinals will
31	146	foods require labels genetically modified food foods retailer country
4	205	bbc egypt tense riot verdict court egypt deliver verdict case albarjeel
104	222	oz great powerful worth time oz great powerful wizard oz prequel directed
4	205	bbc news egypt tense riot verdict court egypt deliver verdict case involving
889	128	urban clothing day suffering clothing style panther tee
4	205	egypt tense riot verdict
904	215	shoveling life shoveled driveway watching neighbor snowblow
4	205	egypt tense riot verdict court egypt deliver verdict case involving worldnews
31	146	good idea require labels gmo food
1494	196	collecting private wi fi data google state year google
1493	161	diyrockets start challenge build open source printed rocket engine
1493	161	diyrockets start challenge build open source printed rocket engine diyrockets belief
884	161	printed implant replaces man skull hope man
175	184	maduro venezuela interim president hugo chavez hand picked successor
104	222	unlocked oz great powerful opening weekend sticker getglue
896	126	pitbull follow japanese fan
786	167	sequestration virus crawl body wreck havoc detected god help united states
886	180	sherlock
884	161	printer bio ink create human organ engineers working printing technology ufo
916	128	buying clothes online gt gt gt
104	222	unlocked oz great powerful opening weekend sticker getglue
1079	223	entering giveaway snapshot leash
1307	202	breakingnews reps member fault amnesty call boko haram
104	141	video oz great amp powerful cast interviews joey king james franco mila kunis
1311	178	hot news golf championship rory mcilroy turn tiger woods advice
904	215	lots snow march lion rescue help zoo staff shovel snowblow plow
786	145	park ranger supervisors pushed sequester cut visitor fox news seriously tired
1107	217	conclave elect pope start march vatican city reuters roman catholic cardinal will enter
25	153	video pistorius fight bail condition
31	146	foods require label genetically modified product
104	141	wanna oz movie mila kunis
104	141	oz mila
884	161	love science technology geek dude percent skull replaced printed replica
1493	161	diyrockets start challenge build open source printed rocket engine
884	161	good dprinting man skull replaced printed implant
104	141	mila kunis james franco lot attractive movie
786	145	park ranger told administration minimize impact budget cut public feel pain nice
31	146	foods vow label genetically modified food york foods product north
1086	215	three men injured manchester snowblower accidents
884	161	print rifle print head man skull replaced printed implant
14	141	mila kunis amp ashton kutcher tongue public amp wins demi moore
104	141	mila kunis oz movie today
104	222	unlocked oz great powerful opening weekend sticker getglue
10	121	half hour sustainability moocs historical perspective
31	146	foods announces mandatory gmo labeling happened
25	153	oscar lawyer appeal bail condition
884	161	amsterdam architect plan printed canal house news
25	153	oscar fight bail condition murder accused oscar pistorius
891	126	swear stupid time hear pitbull rap
172	124	rick springfield arrested previous dui conviction
884	161	percent man skull replaced printed object technology news
40	218	plz flw rescue teams search florida man fell sinkhole florida
104	141	mila kunis michelle williams rachel ugh oz witch
175	184	chavez protege maduro seek snap election venezuela mourns caracas reuters venezuela acting pres
1294	209	chelyabinsk il cacciatore meteoriti
25	153	pistorius challenge strict bail condition murder case
884	161	cent man skull replaced implant created printer photos nature news nature worl
1126	214	common core attack progressive education
76	205	portsaid egypt death sentence fan confirmed judge
8	174	nasa hubble telescope find birth certificate oldest star
1311	178	tiger woods lead golf championships cadillac championship field
76	205	court upholds egypt death sentence
76	205	egypt court confirms soccer riot death sentence
104	222	oz great powerful worth time oz great powerful wizard oz prequel directed
76	205	egypt court confirms soccer riot death sentence cairo ap egyptian court confirmed death sentence
76	205	intl news court upholds egypt death sentence court egypt upholds death sentence deadly
76	205	egyptian court confirms death sentences soccer fans egyptian court confirmed
76	205	bbc news egypt court port football riot death sentence
907	189	reducing site house dust colony remember dog basket pet rest
76	205	egypt court confirms soccer riot death sentence egyptian court confirmed death sentence handed news
889	128	psyche buy designer clothes designer clothing online
76	205	bbc news egypt court port football riot death sentence
76	205	court egypt upheld death sentence handed deadly football riot port amid
76	205	egyptian court confirms death sentence football fan cairo reuters
76	205	court confirms death sentence egypt football riot ruling delivered live tv court hand dow
76	205	breakingnews egypt court confirms death sentence people port football riot left dead
76	205	egypt court confirms soccer riot death sentence cairo ap egyptian court saturday confirm thuggish
1307	202	ghost grant amnesty boko haram ghost hand
76	205	court upholds egypt death sentence court egypt upholds death sentence deadly
76	205	hindu egypt court confirms soccer riot death sentence egyptian court confirmed death sentence handed
76	205	death sentence upheld egypt football case
76	205	egypt court port football riot death sentence bbc news bbc court port foot
8	174	hubble finds birth certificate oldest star
889	128	button moon childrenswear based westlothian designer clothing amp accessory shop online
76	205	post egypt court confirms soccer riot death sentence
76	205	mediooriente death sentence upheld port riot aljazeera
76	205	egypt court confirms soccer riot death sentences egyptian court saturday confirmed death sentence
907	223	watching black lab puppy stick park saturday morning leash hour awesome country
76	205	egyptian court upholds death sentences football riot
76	205	news egypt confirms death sentence football riot msn
891	126	nowplaying pitbull don party feat tjr por en
76	205	egypt court confirms soccer riot death sentence usa today irish court confirms soccer riot deat
25	153	pistorius challenge strict bail condition murder case
104	141	good evil mila kunis oz versus good win hand
76	205	egypt court confirms soccer riot death sentence
31	146	leading requiring gmo food labeled
104	141	mila kunis sexy wizard oz
76	205	egypt court confirms soccer riot death sentence usa today court confirms soccer riot death
89	176	day lord rejoice amp glad join breakfast book club power
76	205	update egypt court confirms death sentence flashpoint soccer riot case reuters ahram
76	205	egypt breakingnews latest photo ultra verdict port photo pm
891	126	nowplaying pitbull ft chris brown international love listen
1494	196	ap source google pay settle wi fi case
76	205	chaos egypt court confirms death sentence soccer rioters verdict egypt
76	205	update egypt court confirms death sentence flashpoint soccer riot case reuters hinduupdate egyp
76	205	update egypt court confirms death sentence flashpoint soccer riot case reuters hinduupdate egyp
76	205	chaos egypt court confirms death sentence soccer rioters
31	146	foods require label genetically modified product
76	205	chaos egypt aftr court confirms death sentence
884	161	wired thermoplastic printed skull implants reality
76	205	egyptian court confirms death sentence port football rioter guardian
884	161	thermoplastic printed skull implants reality
104	141	wizard disney trip oz oz great powerful movie
104	141	beat original sad century long history terrible wizard oz movies
76	205	egypt court port football riot death sentence
76	205	egypt confirms death sentence football riot cairo afp egyptian court saturday upheld death sen
76	205	ndtv court verdict football riot case angry fan torch soccer federation egypt india
76	205	egyptian court confirms death sentences soccer riot twenty people sentenced death
76	205	death sentence upheld egypt riot
1307	202	middle belt youth forum condemns call amnesty boko haram middle belt youth forum
89	176	loved jk book casual read harry great book club
76	205	egyptian court confirms death sentence port football rioter
76	205	death sentence upheld egypt riot egyptians rival city street saturday
76	205	death sentence upheld egypt riot egyptians rival city street saturday express
76	205	death sentence upheld egypt riot egyptians rival city street saturday express
104	222	unlocked oz great powerful opening weekend sticker getglue
1307	202	boko haram afenifere acf disagree jonathan refusal grant amnesty
76	205	breakingnews fans storm egypt football hq court riot ruling
76	205	egyptian court confirms death sentences soccer riot twenty people gt
916	201	newfound particle higgs boson
76	205	soccer egyptian court confirms death sentences soccer riot york times
76	205	sentences anger rival fan egypt rival football fan egypt protest angrily sentence handed news
31	146	foods will label gmo food state don pas law grocer
76	205	pakis rape kids sentences anger rival fan egypt rival football fan egypt protest rochdale heywood
76	205	unrest boils egyptian court confirms death sentences egyptian court upheld death sentence peopl
76	205	sentences anger rival fan egypt
76	205	sentences anger rival fan egypt rival football fan egypt protest angrily sentence handed
884	161	thermoplastic printed skull implants reality coolest printed ufo
76	205	fans rampage cairo soccer riot verdict usa today cbc cafans rampage cairo soccer riot ver
76	205	fans rampage cairo soccer riot verdict usa today top news
76	205	fans rampage cairo soccer riot verdict usa today cbc cafans rampage cairo soccer riot ver
76	205	fans rampage cairo soccer riot verdict usa today cbc cafans rampage cairo soccer riot ver
884	161	absolutely brilliant application patient percent skull replaced printed prosthetic
31	146	foods announced product amp canada store labeled gmo
31	146	foods label genetically modified product year
76	205	egyptian court confirms death sentences soccer fans messed
110	121	cmoocs xmoocs
76	205	egypt soccer riot death sentence spark violence violent protest broke egypt saturday death
76	205	egypt soccer riot death sentence spark violence violent protest broke egypt saturday death
76	205	fans rampage cairo soccer riot verdict egyptian court today confirmed death sentence news
786	145	national park service forced public sequester cut impact
76	205	news update egypt protester target suez canal soccer death sentence confirmed
1307	202	boko haram afenifere acf disagree jonathan refusal grant amnesty
76	205	egyptian court confirms death sentence people role deadly soccer riot
76	205	egypt court confirms death sentences soccer riot
76	205	violence continues egypt sentence football fan ufo
76	205	dtn japan egypt protester target suez canal soccer death sentence confirmed port egypt cairo reu
76	205	yahoo egypt protester target suez canal soccer death sentence confirmed port egypt cai hiv aid
76	205	jpost official suez canal port unrest
1494	196	google nears settlement state wifi incident source
76	205	violent protest soccer riot verdict cairo
1673	167	obama sequestration aimed hurt people month handout bank upper
76	205	fans rampage cairo soccer riot verdict cairo ap egyptian court saturday confirmed deat
1582	174	strange methuselah star older universe
76	205	egypt death sentence spark protest egyptian court saturday confirmed death sentence
76	205	egyptian court saturday confirmed death sentence handed con
76	205	youngest update egypt death sentence spark protest egyptian court saturday confirmed death
76	205	egypt death sentence spark protest egyptian court saturday confirmed death sentence
76	205	egypt death sentence spark protest egyptian court saturday confirmed death sentence
76	205	violence continues egypt sentence football fan euronews news
884	161	thermoplastic printed skull implants reality
76	205	egypt soccer riot sentence spark violence africa bulletin
76	205	egypt confirms death sentence football riot
31	146	excellent foods gmo labeling mandatory
891	126	nowplaying dope ball pitbull
31	146	major grocer label foods gene modified content
1075	136	reading girl bc felt decided cheer well narrative hurt beautiful
31	146	foods concerned health government
76	205	egyptian court confirms death sentence port football rioter protests flare judge will
907	189	best ventura car accident dog bite personal injury attorneys
1086	197	mad men season affair year promo
1086	197	mad men set photos reveal harry crane
893	216	meta analysis benefit chi type diabetes reduce
786	167	cut white house easter egg roll white house tours sequestration saving cut easter
76	205	soccer fans riot death sentence soccer fan convicted rioting latimes
76	205	breaking news egypt death sentence spark protest egyptian court saturday confirmed death sentence
76	205	egyptian court confirms death sentence port riot
104	222	oz great powerful girl opening weekend hope crowded
76	205	egyptian court confirms death sentence accused deadly soccer riot ruling prompt fan rampage
110	121	researchers explore moocs drop
76	205	egypt confirms death sentences football riot egyptian court saturday upheld death sentence
155	160	social media lines education
76	205	fans rampage cairo soccer riot verdict
175	184	venezuelans mourn chavez election expected april
76	205	fear loathing fallout port
31	146	major grocer label foods gene modified content great news
76	205	mt three die clash cairo port verdict egypt
25	153	pistorius challenge bail travel abroad
76	205	egypt live coverage protests portsaid amp cairo court verdicts tcot mena
155	160	social media helps education
31	146	great news label gmo food item
884	161	feeding final printers astronaut meals wired science
76	205	egypt reacts court confirms port death sentence ruling march cairo tight
76	205	fans rampage cairo soccer riot verdict
175	184	venezuelans mourn chavez election successor april
31	146	foods will labeling product genetically modified organism year
904	215	robbed yr neighbor big snow blower fuck
1126	214	making common core work student cc ccchat edchat commoncore
104	141	oz great powerful mila kunis interview theodora disneyozevent
31	146	reason foods charting course label gmo amp increase certified organic supply chain
104	222	box office update oz great powerful earns friday
1107	217	sex abuse victim list dirty dozen papal candidate pope vatican religion pedophilia
76	205	unrest boils egyptian court confirms death sentences
104	222	oz great powerful box office eyes weekend
31	146	foods gmo labeling mandatory
31	146	big foods gmo labeling mandatory
48	170	cia hollywood america spy agency infiltrated big screen minds
31	146	buzz amp hype gmo labeling requirement pr stunt
31	146	foods gmo labeling mandatory huffington post
31	146	will foods start trend requiring labels genetically modified food demand
76	205	plz flw fans rampage cairo soccer riot verdict cairo ap egyptian court
76	205	egyptian court sentence people death soccer riot
1674	134	bored enter sun paper natalie brick middle
31	146	good move foods st grocery chain set deadline adding gmo labeling food
172	124	rick springfield arrested singer custody failed appear court dui case
155	121	higher leader meet discus future online education
40	218	plz flw sinkhole victim missing presumed dead jeff brother year jeremy bush
76	205	cairo court ruling deadly soccer riot spark protest egypt
104	222	oz great powerful set huge box office weekend
31	146	foods commits genetically modified food labels bloomberg
76	205	protests erupt death sentences egypt football riot ktla people killed
891	126	pitbull featuring pitbull
104	141	mila kunis doesn suit wicked witch west
886	180	sherlock holmes cat skillet breaking benjamin three days grace benedict cumberbatch hp cast muse animals will smith
31	146	foods announces mandatory gmo labeling happened huge victory alter
902	115	beautiful day neighborhood easy rogers lmao
104	222	unlocked oz great powerful opening weekend sticker getglue
272	149	roger goodell lt gt nfl lt gt amp amp football safer espn
76	205	disgusting egyptian court confirms death sentence
891	126	dale thks playing np nowplaying feel moment pitbull christina aguilera xo
786	145	making hurt ranger bosses pushed cuts visitors
76	205	egypt soccer sentence riot country control talking soccer start riot
77	158	wing hushpuppy ate
175	184	chavez protege maduro seek snap election venezuela mourns
104	222	unlocked oz great powerful opening weekend sticker getglue
1307	202	boko haram amnesty wipe
76	205	egyptian court confirms death sentence port football rioter
104	141	jan wahl movie review oz great powerful cbs san jan wahl review disney blockbuster
172	124	rick springfield arrested dui probation
104	141	life tour set watch scene franco mila kunis filmed movie
104	222	unlocked oz great powerful opening weekend sticker getglue
104	222	unlocked oz great powerful opening weekend sticker getglue
104	141	expect james franco mila kunis movie
104	141	james franco mila kunis movie perfection
76	205	news violence flare egypt football riot sentence arac yla
884	161	patient cent skull replaced printed implant
1311	178	pga golf wgc cadillac championship doral tiger woods top pga golf
891	126	listening pitbull pandora pandora
175	184	ap caracas venezuela venezuela election commission set april vote replacing late hugo chavez
31	146	people label foods require label genetically modified product
175	184	breaking news venezuela set april presidential election venezuela electoral council set pr
175	184	venezuela set april election chavez death venezuela electoral council set president
175	184	venezuelans mourn chavez election held april caracas reuters venezuela will hold president
110	121	student forum mooc frustrated
1107	217	canada papal candidate agent change americas quarterly
175	184	venezuela election hugo chavez replacement decided april
31	146	foods gmo labeling mandatory
31	146	foods require label genetically modified product bravo good news
76	205	egyptian soccer fan torch building anger court confirms death sentence deadly stadium riot
104	222	unlocked oz great powerful opening weekend sticker getglue
76	205	africa egypt death sentences soccer riot confirmed court
175	184	venezuela set post chavez poll presidential election replace late venezuelan leader hugo chavez wi
175	184	venezuela set post chavez poll presidential election replace late venezuelan leader hugo chavez wi
36	193	bulgarian set fire symbol protest global post
175	184	news venezuela set april election chavez death cbc cbc set april
889	128	urban clothing konvict clothing akon lady gaga vmas popular clothing brand
104	222	unlocked oz great powerful opening weekend sticker getglue
175	184	venezuela set election venezuela presidential election pick successor late hugo chave
76	205	riots follow court verdict egypt brace violence
884	161	video researchers developing bio ink print human organ dprint
175	184	venezuelans mourn chavez election set mid april reuters cbc venezuelans mourn chavez election
104	141	mom going movie tomorrow entire time gonna thinking hot james franco mila kunis
106	135	boston dynamics unveils bigdog dynamic robotic manipulation official
175	184	venezuelan election pick chavez successor set april cnn venezuelan election pick chavez su
175	184	venezuela set presidential poll april election choose successor hugo chavez announced
104	141	oz movie strictly mila kunis
104	222	unlocked oz great powerful opening weekend sticker getglue
104	222	oz great powerful spins friday box office haul
104	141	video mila kunis talk chris stark scott mills radio
104	222	unlocked oz great powerful opening weekend sticker getglue
1307	202	sultan fire islamists amnesty call
175	184	venezuela hold post chavez election presidential election replace late venezuelan leader hugo chavez will held
76	205	unrest egypt portsaid football riot sentence
104	222	unlocked oz great powerful opening weekend sticker getglue
886	180	sherlock holmes business people sherlock holmes
1494	196	google nears settlement street view privacy breach slashgear
175	184	venezuelans mourn chavez election set mid april
104	222	oz great powerful spins friday box office haul great
175	184	sp venezuela election set april venezuela will hold special election april choose presi
104	222	unlocked oz great powerful opening weekend sticker getglue
89	176	member adult winter reading club don monday march pm
1307	202	sultan fire islamists amnesty call sultan sokoto alhaji sa ad abubakar
175	184	venezuela election set april venezuela will hold special election april choose president
175	184	venezuela election set april venezuela will hold special election april choose president
1311	178	woods extends lead close seventh wgc title
175	184	venezuela election hugo chavez replacement decided april
31	146	plan gmo disclosure label
884	161	photo printed implant replace percent man skull printed implant
175	184	venezuelan election set april venezuela will hold special election april choose presiden
1126	214	resources understanding common core state standards edutopia
175	184	venezuela hold post chavez election april
104	222	unlocked oz great powerful opening weekend sticker getglue
104	222	unlocked oz great powerful opening weekend sticker getglue
104	141	witch mila kunis hot
104	222	unlocked oz great powerful opening weekend sticker getglue
104	141	good witch mila kunis oz sexy witch
175	184	venezuelans mourn election set april venezuela will hold presidential election april
31	146	foods announces mandatory gmo labeling happened
104	222	unlocked oz great powerful opening weekend sticker getglue
884	161	thermoplastic printed skull implants reality wired design
1311	178	tiger woods seeking wgc title tomorrow
104	141	fyi guy wanna oz cuz mila kunis stay michelle williams girl film somethin
886	180	better good sherlock holmes tea start weekend relaxed
175	184	news venezuela announces snap presidential election april venezuela announced saturday
175	184	iran feature week civil society international women day death hugo chavez iranelection
175	184	hugo chavez chosen successor maduro chavez approach
106	135	photo topherchris cinder block throwing robot playing catch cinder block
31	146	today set deadline clearly label product store gmos
1311	178	tiger win sunday will wgc title jim career victory total stat
1107	217	boston news outlet local cardinal top candidate pope reporter excited
104	222	unlocked oz great powerful opening weekend sticker getglue
31	146	foods require labels genetically modified products ktla foods seafood
104	141	great amp powerful oz assured thing wife gonna mila kunis hot
3	121	question knew answer seminar mit amp harvard people presenting mooc
104	141	wilmington movies oz great powerful imagine version
1075	169	honey boo boo facebook sell cooky toddler star selling girl scout cooky
175	184	venezuela set presidential election april choose successor hugo washington post hindu
104	141	oz well bunch time mila kunis rock
104	222	weekend box office oz great powerful huge opening
104	222	unlocked oz great powerful opening weekend sticker getglue
175	184	editorial venezuela set presidential election april election commission announcement
104	222	unlocked oz great powerful opening weekend sticker getglue
104	222	unlocked oz great powerful opening weekend sticker getglue
31	146	question neighbor lay bare national gmo debate gmo monsanto
31	146	foods require labels genetically modified products will drive extra mile shop
104	222	box office oz great powerful opening variety
104	141	acf anime radio oz great powerful movie review watch dude
886	180	download sherlock holmes collection movies sherlock holmes collection movie download actors
104	141	oz great mila perfect usual
104	222	unlocked oz great powerful opening weekend sticker getglue
31	146	foods announces mandatory gmo labeling happened percent
104	141	review oz great powerful oz great powerful
1104	133	ill cruise ship return port york cnnmoney royal caribbean vision seas ship
104	141	originally oz stare james franco mila kunis turn pretty awesome movie
175	184	eyes capriles venezuela election set eye opposition leader henrique capriles election set replace hugo chave
175	184	chavez death elections outlook venezuela
175	184	venezuela set post chavez election april su
76	205	thinking mother met yesterday appears calm port
76	205	death sentence upheld egypt football case
104	141	special good suck james franco mila kunis honestly ruined movie
104	141	oz movie extremely sad mila kunis turn soooo hot
1104	112	cruise victory tampa bay derby lived pre race hype
76	205	egypt court upholds football riot death sentence easy
890	123	calm solar storm nasa warns unexpected happening sun
76	205	analysis egypt soccer sentence riot country control country held breath saturday
76	205	fans cairo rampage soccer riot verdict
76	205	death egyptian court confirms death sentence port football rioter guardian follow
76	205	riots egyptian judge upholds death sentence football disaster
916	128	weird ordering clothes online
1307	202	sultan fire boko haram amnesty call amnesty call member islamist sect group
884	161	dutch architect build printed canal house
36	193	bulgarian protesters rise state privatization
104	222	unlocked oz great powerful opening weekend sticker getglue
1107	217	cardinals pray conclave choose pope vatican city reuters roman catholic cardinals prayed
1212	124	top headlines mafia star sarasota dui mystery sinkhole walmart sinkhole news
1307	202	better condition amnesty boko haram reject call amnesty boko haram
56	165	didn error puzzle win york state division big big acpt
889	128	design clothing online print email design clothing online
884	161	man percent skull replaced printed implant
55	157	kim kardashian pull pregnancy readers kim swap designer people
104	141	going cinema great oz cu mila kunis action
36	193	bulgarians protester demand state sale
89	176	nerdy book club changed saved life brian wyzlic
89	176	power nerdybookclub gt nerdy book club changed saved life brian wyzlic
1126	214	thoughtful piece common core
175	168	venezuela suspect infecting hugo chavez expels military attache
8	174	hubble finds birth certificate oldest star image nasa app
31	146	foods require labels genetically modified products clearly going prop
890	123	nasa warns unexpected happening sun amp amp changes low solar max double peaked video
891	126	feel moment feat christina aguilera pitbull
893	216	reduced fruit intake hba weight loss waist obese newly diagnosed diabetic
1107	217	york cardinal dolan mass ahead conclave potential candidate pope dolan big hit wit
1676	165	finalist aaron wilson jeff davidson benjamin coe acpt
886	180	bbc sherlock fan forum analysis captain john watson discussing military service
104	141	mila kunis smoking hot movie oz turned ugly witch
104	222	weekend box office oz great powerful claims third highest march debut time fact
104	222	box office oz great powerful opens worldwide
1677	161	belgian doctor paper printing minimize time dprint
104	222	unlocked oz great powerful opening weekend sticker getglue
891	126	omfg hearing fucking song radio fed pitbull christina aguilera song annoying
104	141	mila kunis oz great powerful def going
184	222	disney oz bewitches box office debut los angeles ap oz great power clicked
104	222	suryaray surya suryaray surya weekend box office oz great
1678	165	min tyler finish tough upper left hardest corner acpt
889	128	clothing amp accessories silver plated redeem online rock arkansas
188	147	victoria secret commercial pasta trash apple ugh hate skinny girl
1679	165	dan acpt
104	222	artsbeat oz great powerful big opening
184	222	disney oz prequel score box office gold los angeles reuters walt disney oz great power
104	222	oz great powerful win weekend box office disney prequel wonderful wizard oz
104	141	oz great powerful james franco mila kunis story wizard oz
184	222	disney oz bewitches box office debut los angeles ap oz great powerful clicked
184	222	disney oz bewitches box office debut los angeles ap oz great powerful clicked
1494	196	listing newyork google fine ll pay lawyers
1107	217	will pope meet papabile
1107	217	cardinals pray conclave choose pope vatican city reuters roman catholic cardinals prayed
104	222	oz great powerful box office sam raimi prequel oz great powerful enjoyed year
1680	167	feel sequestration scare sequestration appears
902	115	movie fred rogers america favorite neighbor pda fred rogers america favorite neighbor movie download
129	192	sc whooping cough vaccine
104	141	oz mila kunis
40	218	sinkhole season underway florida seffner fla crew entombed man swallowed sin
884	161	redeye demand printed cars edge closer production redeye demand rapid direct
104	222	unlocked oz great powerful opening weekend sticker getglue
1126	214	teacher questions common core standards
104	222	unlocked oz great powerful opening weekend sticker getglue
890	123	nasa concerned solar activity unexpected happening
1502	111	drought drought assistance altusok agchat
890	123	calm solar storm nasa warns unexpected happening sun
155	160	social medium dialogue education
1494	196	ap news ap source google pay settle wi fi case
1571	189	toddler hopkins head injuries apparent dog attack
8	174	methuselah star oldest star revealed gallery
31	146	foods start labeling genetically modified foods foods spurred concern
31	146	foods start labeling genetically modified foods foods spurred concern
891	126	everyday gift fight life pitbull
1311	178	ian concedes wgc cadillac championship tiger woods tiger woods official swipe
175	184	venezuelan election pick chavez successor set april
904	215	snow blower injury common kansas city mo snow removal technique
889	128	shopping guides places find fashion forward maternity clothes online
175	184	reuters amp venezuela called presidential election april set pit hugo chavez amp
104	222	unlocked oz great powerful opening weekend sticker getglue
175	184	venezuela holds hugo chavez state funeral
904	215	missing piece snow blower front yard guarantee won season
104	222	oz great powerful box office
886	180	sherlock causing john quietly sherlock catch settle hug
48	195	oscar awards winner best picture argo best actor daniel day lewis
886	180	met dog sherlock holmes practically touched holmes watson directly
1311	178	tiger woods playing tiger woods
104	222	unlocked oz great powerful opening weekend sticker getglue
104	222	photo unlocked oz great powerful opening weekend sticker getglue
104	222	unlocked oz great powerful opening weekend sticker getglue
110	121	learning harvard mooc story pt elearning
1303	143	maracan stadium will ready month claim state secretary blog
31	146	minnesota battleground state fight label gmos
1311	178	tiger win wgc cadillac championship time pga title golf
1311	178	congrats tiger wgc title
104	141	best thing oz mila kunis boob color ve picturing spoiler
1311	178	cool tiger win indiana win st big title year
1311	178	tiger win doral pga tour victory tiger woods hitting stride march masters
1311	178	tiger wgc title pga tour win impressive
104	222	unlocked oz great powerful opening weekend sticker getglue
1311	178	tiger woods win doral tiger woods won golf championship tournament doral blue monster cour
104	222	oz great powerful box office families couple flocked theater disney oz
104	222	check oz great powerful box office families couple flocked suryaray
104	222	oz great powerful box office families couple flocked theater disney oz
1493	161	creativity competition best open source printed rocket engine launched science report
31	146	minnesota battleground state fight label gmos
31	146	will foods start trend requiring labels genetically modified food
1307	202	makinde fault sultan amnesty boko haram vanguard news primate methodist
1311	178	woods close win cadillac championship tiger woods hitting stride march
1311	178	tiger woods wgc title
94	122	kickstarter open source death star kickstarter
104	141	oz wasn great thought pretty cute side year costume mila kunis lt
898	192	routine vaccination disease child
104	222	unlocked oz great powerful opening weekend sticker getglue
104	141	mila kunis play tribute original wicked witch west
104	141	photo hollywood fashion mila kunis alexander mcqueen london premiere oz great
172	124	austin seferian jenkins arrested dui washington tight released office
1494	196	google wi fi result fine
172	124	uw te austin seferian jenkins yard arrested suspicion dui saturday night ut
891	126	playing pitbull
48	195	argo win oscar best picture watched amp
104	222	unlocked oz great powerful opening weekend sticker getglue
77	158	corn cob fried catfish fillet cole slaw hush puppy garlic stick
76	205	egypt death sentence spark protest
104	222	oz great powerful bewitches box office debut ctv news
172	124	washington seferian jenkins arrested dui seattle police university washington standout tight
1311	178	tiger woods wins championship
104	222	unlocked oz great powerful opening weekend sticker getglue
31	146	bill maher china requires gmo labeling america land free
14	212	kate middleton baby kicking amp excited stir
172	124	espn washington seferian jenkins arrested dui seattle police university washington standout
1107	217	ahead conclave papal candidates visit rome churches day papal conclave cardin
1107	217	ahead conclave papal candidates visit rome churches day papal conclave cardin
175	184	venezuelan presidential election set april venezuelan opposition leader henrique capriles official
902	115	watched episode daniel tiger neighborhood rogers neighborhood gracie tonight awesome dad moment
104	141	mila kunis oz
104	222	blogged amp oz great powerful amp big opening
110	121	thomas friedman wrong moocs
104	222	disney oz great powerful top international opening debuting solid
1107	217	pope election vatican spokesman reason conclave will long
48	195	argo seriously good movie definitely deserved oscar love ben affleck
104	141	james franco michelle williams rachel weisz mila kunis london premiere rose
1311	178	tiger wood win wgc championship
175	184	venezuelan opposition leader ll replace hugo chavez
40	218	fla man presumed dead sinkhole open bed brother jeff bush
175	184	venezuela capriles president opposition leader will challenge late hugo chavez
77	158	chicken salad hush puppy amp amp boiled egg lucky
1126	214	excellent resources help align teaching common core standards
1086	173	study statin tv commercial serious side joke
172	124	uw te austin jenkins arrested dui seattle
104	222	oz great powerful great box office weekend rotten tomatoes
104	141	oz great powerful movie review
828	133	cruise ship shit ovr royal caribbean diarrhea virus http cruise shi
893	192	health news daily whooping cough vaccine protection wane
175	184	henrique capriles venezuelan opposition leader will elections
1307	202	sultan amnesty call boko haram disappointing makinde primate methodist church nigeria
181	198	hostess creditor pe firm interest twinkies brand ny post hostess brands creditor silver point
886	180	elementary sea sherlock holmes
893	192	whooping cough vaccine protection wane
886	134	sue friend middle reminds hs sue
1578	205	portsaid father hearing son sentenced life prison son sentenced death egypt
1311	178	steve stroke gained putting wgc cadillac tiger woods weekly
31	146	gmo food labeling debate continues publichealth gmo
52	145	focus sequestration fallout park delayed opening win lose senate politics
31	146	foods gmo labeling mandatory
1307	202	post boko haram accuses jonathan double standard amnesty
76	205	egyptian soccer fans riot verdicts cbn news christian news
889	128	follow clothing online shop open limited
175	184	venezuela capriles stand venezuelan election heel president hugo chavez funeral
1212	124	csi ny star carmine giovinazzo pleads guilty dui case csi ny star carmine giovinazzo play
25	153	pistorius lawyers appeal bail rules
25	153	lawyers blade runner pistorius appeal bail condition girlfriend shooting death lawyer argue
1311	178	woods wrap miami win tiger woods win golf championships event miami mcdo
1212	124	celeb tmz csi ny star carmine giovinazzo pleads guilty dui case
1212	124	csi ny star carmine giovinazzo pleads guilty dui case csi ny star carmine giovinazzo play det danny
1504	121	berlin based iversity relaunches moocs platform sets sights coursera europe fa
25	153	pistorius lawyers appeal bail conditions
1504	121	berlin based iversity relaunches moocs platform sets sights coursera europe
25	153	pistorius lawyer appeal bail restriction
884	161	patient cent skull replaced printed implant
110	121	word moocs
605	140	york plan richard iii fest royal reburial campaign heritage
25	153	pistorius lawyer appeal bail condition ap lawyers oscar pistorius filed appeal
25	153	vox pistorius lawyer appeal bail condition fresh news
916	201	newfound particle higgs boson
25	153	lawyer argue foreign travel bail condition fact
25	153	pistorius lawyer appeal bail condition
25	153	oscarpistorius basically appealing bail condition
25	153	yahoo pistorius lawyer appeal bail condition lawyers appeal bail restriction olymp hiv aid
104	141	mila kunis oz film excuse watch
25	153	pistorius lawyer appeal bail condition
25	153	oscar pistorius lawyers appeal bail conditions
104	222	oz conjures magic number wizard oz prequel oz great powerful dorothy
904	215	shovel snow shovel snow
104	222	oz great powerful box office families couple flocked theater disney oz
104	222	oz conjures magic number wizard oz prequel oz great powerful dorothy
104	222	oz great powerful box office families couple flocked theater disney oz
104	222	oz great powerful box office families couple flocked theater disney oz
104	222	oz great powerful box office families couple flocked theater disney oz
1311	178	tiger woods win wgc title
76	205	egyptian soccer fans riot verdicts egyptian soccer fan riot cairo police officer
1107	217	cardinals gather day conclave elect pope
1615	179	women inmates care iditarod dogs
25	153	pistorius lawyers appeal bail conditions
1214	123	dish network day darn thing doesn wanna work solar flare asteroid mess
25	153	pistorius lawyer appeal bail condition
1504	121	berlin based iversity relaunches moocs platform sets sights coursera europe fa
25	153	pistorius lawyer appeal bail condition
104	222	oz great powerful bo fair great rest top film total
1107	217	cardinals gather final talk pope entering top secret conclave
7	210	people shot street corner overnight police investigating shooting busy
104	222	oz great powerful soars top spot box office sam raimi
89	176	excited community group wednesday book club friday conference saturday
1086	197	mad men april
181	198	business news report hostess creditor pe firms interest twinkies brand finance money fox
25	153	pistorius verge suicide oscar pistorius south african athlete accused killing girlfriend
1311	178	doral win woods closing tiger woods didn reach victory
1311	178	doral win woods closing tiger woods didn reach victory
31	146	prob scientific arg listing gmo label prob happen
1494	196	settlement state google street view wifi privacy case
1107	217	betting man bet archbishop vienna will pope wrong
1494	196	google settle wifi data collection case streetview car collected personal data unsecured wifi network
893	216	surgery lose weight diabetes newly published report gastric bypass operation
25	153	pistorius lawyer appeal bail condition
904	215	judge will matthew creepy guy door snowblowed sidewalk half driveway
889	128	clothes online cry
25	153	oscar pistorius file appeal bail condition freedom travel south africa granted freedom
163	114	rick snyder plan detroit opposite democracy
25	153	oscar pistorius lawyers leave country sport pistorius
25	153	oscar pistorius lawyers balking bail restrictions worldnews
104	222	oz conjures magic number wizard oz prequel oz great powerful dorothy
104	222	memory man oz great powerful muscles debut disney imm
14	212	slam kate middleton single opinion hold
104	222	box office report oz opens mil north america mil global debut
25	153	oscar pistorius lawyers balking bail restrictions
129	192	spike whooping cough state kid point shot increase case minnesota grade sch
25	153	lawyers pistorius file appeal bail condition
1214	210	injured drive shooting washington dozen people injured drive
893	192	drink evidence whooping cough protection wanes reporter monday march
1307	202	methodist jonathan amnesty boko haram stand
890	123	min news march tungurahua erupts earthquake sunspot ins
110	121	moocs impact education
889	128	alexander mc queen clothes online cry
25	153	state reportedly preparing oppose oscar pistorius appeal bail condition
104	222	oz proves great powerful box office draw mtv news disney sam raimi big roll
94	122	kickstarter open source death star kickstarter
7	210	eleven people shot dc street corner overnight washington post
104	222	oz highest opening year box office roundup
1084	129	rovio launches animated angry birds video series rovio tv marketing branding
1084	129	rovio launches animated angry birds video series
104	222	disney oz great powerful top box office debut
25	153	lawyers oscar pistorius file appeal bail restriction imposed olympian
1084	129	angry birds video series launching week apps considering rovio simply
1214	111	ti shs hit acute water severe water shortage hit
181	198	hostess brands eyed creditor private equity firms twinkie snack cake brands
1084	129	angry birds hit bn downloads game cartoon channel
104	222	oz great powerful boost box office oz great powerful box celebrity gossip
104	222	oz great powerful box office weekend st place earns
1493	161	partnering diyrockets launch printed rocket engine design competition lead open source vanguard
786	145	republicans sequestration sequestered yard
886	180	sherlock season three underway bbc hit drama
893	192	explain increase whooping cough study vaccine loses
104	222	oz great powerful box office weekend st place earns
267	139	watch sean lennon yoko ono artists fracking don frack mother youtube
25	153	pistorius seek leave south africa south african track star oscar pistorius charged murdering
25	153	pistorius seek leave south africa south african track star oscar pistorius charged murdering
890	123	min news march tungurahua erupts earthquake sunspot instability
1084	129	hitting bn downloads rovio angry birds toons will game starting march
1084	129	hitting bn downloads rovio angry birds toons will game starting march
1084	129	hitting bn downloads rovio angry birds toons will game starting march
163	114	rick snyder detroit takeover plan democracy nation
25	153	pistorius seek leave south africa south african track star oscar pistorius charged murdering
25	153	pistorius seek permission leave south africa south african track star oscar pistorius charged murde
1084	129	angry birds hit bn downloads cartoon coming tv smartphones tablet socialmedia
241	206	fucking bombing thing yarn fucking
184	141	disney oz prequel score box office gold shelby township source newspapers oz
1107	217	italian newspaper york cardinal dolan papal candidate starting tuesday cardinal
267	139	best vid title amp star cast don frack mother check
1084	129	bangalore angry birds toons will games march startups
184	222	box office drew filmgoers oz great powerful los angeles times
1214	210	injured shooting northwest dc apartment building
1084	129	rovio angry birds downloaded billion time cartoon coming march rovio
890	123	min news march tungurahua erupts earthquake sunspot instability video
104	141	mila kunis oz great powerful
31	146	foods start label gmos
1084	129	rovio add tv channel game launch angry birds toons march
214	118	suggestion israel repair relationship turkey
3	121	nice article justin reich mit students risks rewards moocs
36	193	third fatal immolation bulgaria year
241	206	fun yarn cool
886	180	anime sherlock holmes judul anime sherlock holmes
31	146	shouldn positive labeling gmo free gmo lack label store doesn
31	146	foods announces voluntary labeling gmo government mandate
1126	214	kindergarten curriculum play common core problem solution issue teach well
172	210	shots fired car speeding road police people
25	153	pistorius bail south african track star oscar pistorius charged murdering girlfriend applied
25	153	lawyers pistorius file appeal bail condition south african court
25	153	pistorius bail south african track star oscar pistorius charged murdering girlfriend applied
1084	129	rovio launch angry birds cartoon inside mobile game
31	146	major grocer label foods gene modified content big
1214	210	hurt drive shooting nyc news
1086	197	mad men recap matt weiner jon hamm set stage season
188	139	hey sing watch video pas
48	195	michelle obama presenting best picture argo oscars
889	128	visit view buy range cheap fashionable knitted accessory manufactured uk
889	128	visit view buy range cheap fashionable knitted accessory manufactured uk
267	139	fracking sean lennon yoko ono recruit famous friends anti fracking clip
889	128	shopping online buy lt lt lt lt
172	124	washington te seferian jenkins arrested dui
1084	129	rovio will deliver angry birds cartoon games
1084	129	rovio will deliver angry birds cartoon games fans angry birds will
1084	129	rovio will deliver angry birds cartoon games fans angry birds will
1084	129	angry birds cartoon fly game tv weekend
1084	129	rovio will deliver angry birds cartoon games
1084	129	angry birds cartoon fly game tv weekend
1084	129	angry birds cartoon fly game tv weekend angry birds cartoon series will debut
1311	178	watched tiger woods win golf championships cadillac championship weekend
1307	202	mike amnesty ceasefire will work boko haram
1086	197	mad men recap matt weiner jon hamm set stage season season mad men vi
1086	197	mad men recap matt weiner jon hamm set stage season season mad men vi
31	146	minnesota battleground state fight label gmos
1086	180	cant wait sherlock season three starts filming week will air winter
886	180	personal decided sherlock holmes playing
1084	129	angry birds cartoon fly game tv weekend
155	160	inspiring ways social media classroom
1311	178	tiger blue monster wgc title
1084	129	rovio will deliver angry birds cartoon games
12	138	city room guide york soda ban mayor michael bloomberg ban
886	180	cumberbatch sherlock hair
1084	129	favorited video angry birds toons official trailer
1084	129	rovio introducing angry birds cartoon bundled inside rovio angry birds mobile game
104	222	oz great powerful bewitches weekend box office color green surprised oz grea
1107	217	leading candidate pope real sense affair selection
1084	129	rovio add tv channel game launch angry birds toons march
134	124	tim commented peter shilton appear court drink driving charge article leicester
31	146	foods will require gmo labeling
1084	129	mobile rovio angry birds toons bundled company mobile games will arrive march
1431	192	whooping cough vaccine appear wear sooner told health pertussis
25	153	pistorius passport thom oscar pistorius lawyer prepare convince pre
12	138	mayor bloomberg ban large sugary soda york daily news york dail
25	153	oscar pistorius suicidal family lawyer appeal bail condition
1086	197	mad men season year don draper well well
1307	202	jonathan amnesty denial boko haram acn action congress nigeria acn president
104	222	oz conjures america box office magic big budget fantasy adventure flick oz great powerful
12	138	city room guide york soda ban
1107	217	pope candidate axed trashy facebook photos
1107	217	love pope candidate axed trashy facebook photos
1084	129	upcoming cartoon angry birds toons rovio games ios blog
886	180	sherlock holmes movie sherlock holmes movie download actors download
1431	192	pertussis tdap vaccine teen helium
1615	223	yellow dog project aim dog space dogs pls
110	121	penn foster announces acceptance moocs credit edtech times
1084	129	technology news angry birds cartoon tv gadget device
175	184	hand picked chavez successor register election
267	139	don frack mother sing artists fracking
886	180	bbc tweeted sherlock grape trend
25	153	pistorius lawyer appeal bail condition
1307	202	don man supported gej position amnesty boko argued change topic
1084	129	rovio angry birds toons bundled company mobile games will arrive march
31	146	love will foods start trend requiring labels genetically modified food leadership
1214	210	hurt shooting dc apartment building
1104	133	norovirus caribbean cruise daily beast daily caribbean
1084	129	rovio launch angry birds cartoon series rovio angrybirds cartoon animation gaming tv
886	180	ci ho benedict sherlock sherlock
12	138	breaking judge invalidates york city ban large sugary drink ban scheduled tomorrow
1311	178	tiger woods tiger woods created buzz golf
12	138	breakingnews state judge halted nyc limit sale large sugary drink set tomorrow
12	138	judge overturned nyc ban large sugary drink common sense finally
12	138	global judge halt york city ban large sugary drink wsj judge halt york city ban
12	138	judge halt york city ban large sugary drink wsj judge halt york city ban large sugary drink wsj
12	138	judge halt mayor soda ban call arbitrary capricious
12	138	judge halts york city soda ban michael howard state judge monday stopped mayor michael
12	138	sound judge ban doesn
12	138	flash york city ban large size soda drink blocked state judge
12	138	judge halts york city soda ban wall street journal
12	138	breaking judge halt mayor bloomberg ban large soda
12	138	state supreme court justice milton tingling manhattan called nyc sugary drink ban arbitrary capricious update
12	138	judge halts york city soda ban
12	138	court overturned ny ban large sugary drink report check issue
12	138	ny judge halt bloomberg ban large sugary drink state judge monday stopped mayor michael bloomberg
12	138	woo hoo ny supreme court judge milton tingling nyc permanently fm implementing enforcing soda
12	138	mayor bloomberg labelled arbitrary capricious mt judge halt nyc limit sale large sugary drink
1214	210	violence people injured drive shooting graphic video
12	138	fox tv gt reports judge invalidated bloomberg ban large sugary drinks gt ride king jesus tcot obama
12	138	top news judge toss york city planned ban large sugary drink york reuters judge mon
12	138	heard york city drink ban invalidated court hope legal team appeal
12	138	judge toss york city planned ban large sugary drink
258	112	downs launch free road roses online game
886	180	sherlock season three vuelve
104	141	mila kunis mila kunis talk chris stark scott mills radio
12	138	judge halts york city soda ban
12	138	breaking judge strike nyc large soda ban large soda party addicted
12	138	judge toss york city planned ban large sugary drink yahoo news
12	138	judge toss mayor bloomberg ban large sugary soda day
12	138	york judge halt nanny mayor michael bloomberg ban large sugary drink calling ban arbitrary capricious
12	138	ny city ban sale large soda judge york reuters judge monday invalidated york city plan ban large
12	138	heard nyc soda ban
12	138	god nanny bloomberg soda ban thrown court calling arbitrary
12	138	judge york city soda ban fraught arbitrary capricious consequence full story
12	138	ny city ban sale large soda judge joseph ax york reuters judge monday
12	138	hour mayor bloomberg loses large sugary drink ban battle
12	138	york city large soda ban blocked court block ban sale large sugary drink incl
12	138	breaking judge invalidated nyc upcoming ban sugary drink container larger oz ban set tues
12	138	judge strike nyc ban large sugary drink fat people rejoice judge strikes nyc soda ban
12	138	state judge invalidates york city ban sugary drink container larger ounce venue cnn
1086	197	mad men season poster
12	138	judge invalidates bloomberg soda ban state supreme court judge invalidated restriction sweetened
12	138	judge toss nyc planned ban sugary drink judge monday invalidated york city plan follow
31	146	step direction requires gmo labeling
12	138	judge toss nyc planned ban sugary drink judge monday invalidated york city plan ban lar
12	138	breaking judge invalidated nyc upcoming ban sugary drink container larger ounce ban set tues
12	138	judge blocks york city ban big sugary drinks
12	138	nyc soda ban rejected judge strikes limit large sugary drinks arbitrary capricious
12	138	judge invalidates bloomberg soda ban
12	138	soda ban dr pepper rejoice judge blocks soda ban
12	138	judge strike nyc sugary drink size rule
12	138	mayor bloomberg soda ban shut judge declined clarkson voice
106	135	big dog tossing cinder blocks bigdog cinderblocks darpa robotics
12	138	york city large soda ban blocked court block ban sale large sugary drink including soda
12	138	finally showing common sense york judge overturn nyc soda ban
12	138	judge invalidates york city ban big sugary judge invalidated york city ban large sugary
12	138	judge nyc sugary drink ban
104	141	oz box office weekend great excuse mila kunis red carpet history
12	138	lobbyists work breaking news judge invalidates york city ban big sugary drinks
12	138	judge bloomberg nyc soda ban nyc soda ban fox nation
295	210	police release shocking footage drive attack shot dc morning
12	138	big mayor bloomberg york city large soda ban blocked
12	138	judge overturn york ban big sugary drink groundbreaking law supposed kick tomorrow reax amp detail
12	138	york city large soda ban blocked
886	180	feel sense talking breathing sherlock sherlock sherlock
12	138	judge halt mayor mike sugary drink bill sez fraught arbitrary amp capricious consequence
31	146	democracy love hold sell product company coca cola lobbied gmo labeling wtf
12	138	york city ban sale large soda judge reuters news
12	138	judge throw nyc ban large sugary drink york state judge monday threw ban large
12	138	judge strike york city sugary drink size rule
12	138	judge halts york city soda ban bloomberg
12	138	judge block york city ban big sugary drink dealing mayor bloomberg major blow
12	138	nyc judge throw bloomberg big sugar drink ban
12	138	latest news judge throw nyc ban large sugary drink
12	138	judge overturned mayor bloomberg soda ban spilling oz drink lame handout
1086	197	mad men check mad men season poster revealed tv
12	138	judge struck nyc sugary drink size restriction rule loophole
12	138	judge throw soda ban ruling law conflict consumer protection
12	138	mexico news york state judge monday threw ban large sugary drink set ef mex info
12	138	judge throw nyc ban large sugary drink york state judge monday threw ban large
110	121	moocs save academic freedom edudemic scoop moocs
172	124	washington tight austin seferian jenkins arrested suspicion dui
1086	197	season teaser poster madmen classic filled style
1086	197	mad men season poster don draper faced tease mad men season poster tease side don
886	180	sherlock con martin benedict
1086	197	sneak peek mad men affair year april
258	166	wait till maryland casino live table game
267	139	yoko ono susan sarandon star anti fracking music video environment
12	138	judge bloomberg soda ban eviscerate separation powers
3	121	educationally student moocs help solve real problem
12	138	judge overturns york city ban big sugary sodas
12	138	health york ap judge struck york city ban big sugary drink monday hou pakistan
155	160	social medium dialogue education nation
110	121	lots big mooc data mooc tb
12	138	judge soda ban wld http judge soda ban eviscerate separation power tb
1086	197	awesome madmen season poster
12	138	judge strike nyc sugary drink size rule hr sfgate
12	138	breaking state judge halted york city limit sale large sugary drink legal
1214	210	drive shooting night dc people injured drove happened pm
1084	129	angry birds toons cartoon series lands weekend
12	138	dislike soda glad nyc soda ban struck treat adult adult smh fb
12	138	judge blocks york city limits big sugary drinks york times blocks york city lim
12	138	lmao win civil liberty fatty judge invalidates bloomberg ban sugary drinks
886	180	life quote single episode sherlock word word cry tv bbc
31	146	foods will require label gmo food
1084	129	rovio launches animated angry birds video series
1086	197	mad men hire year ad man straight swinging madman television
886	180	sherlock holmes
12	138	judge blocks york city limits big sugary drinks york times abc news judge blocks york city
916	128	post benefit online purchase clothes apparel
104	222	disney oz great powerful granted debut box office washington post cbs
12	138	chef legal update ny court city enforce health board rule banning sale large sugary drink
12	138	judge block york ban giant soda judge york monday blocked city mayor michael
1214	210	wn wounded drive shooting dc apartment building critical fox news washington
12	138	york city large soda ban blocked court block arbitrary capricious ban sale large sugary drink york
48	195	watch argo lad oscar best film deserved benaffleck
12	138	york city soda ban struck judge hour ruling
896	126	seriously people prefer auto tuned instrumental music pitbull nicki minaj
12	138	judge halt york city ban large sugary drink
12	138	nyc bloomberg soda ban denied dear mayor bloomberg pretty good track record
12	138	mayor bloomberg nyc soda ban rejected judge
12	138	judge blocks bloomberg big beverage ban tlot
893	173	statins prescribed good evidence
12	138	judge blocks york city ban big sugary drinks
12	138	judge halts york city soda ban drink friend
12	138	real estate support judge blocks arbitrary nyc sugary drink ban judge invalidated york city plan
12	138	york cup mayor bloomberg proposed ban extra large soda
12	138	nyc judge hold city proposed regulation ban oz pop arbitrary capricious yeg
12	138	live mayor bloomberg holds press http live mayor bloomberg hold press conference blocked soda ban tb
238	111	fort collins responds drought putting water restriction place starting april
886	180	sevnilock bbc sherlock trust johnlock px complete picture click
921	112	kentucky derby profile hear ghost power horse racing nation
12	138	finally sanity judge halt york city ban large sugary drink nyc sanity
31	146	foods announces mandatory gmo labeling happened lt guy
77	158	hush puppy fried chicken green dinner
12	138	news york judge quashes ban large sugary drink globe mail globe york ju
886	180	sherlock se esta
884	161	check wave printing organ printing
12	138	soda rule nyc sugary drink ban ice judge drinks nyc sugar ba
12	138	disagree thee legend thee mayor bloomberg watch drink large soda fuck
12	138	bbc news york city large soda ban blocked judge
1104	133	news alert passengers crew caribbean cruise ship norovirus
55	157	kim kardashian great pregnant
12	138	york city mayor confident will win appeal soda ban reuters news
12	138	bloomberg vow fight judge halt ban large sugary drink nyc
1214	210	people injured washington dc shooting
267	139	gordon sarandon amp ono lennon anti fracking video music legend yoko ono teamed broadway
12	138	reference judge milton tingling nyc sugary drink decision capricious arbitrary
12	138	video ny mayor appeal soda ban block york mayor michael bloomberg appeal
884	161	plastic implant replaces three quarter man skull technology science news
886	180	sherlock
12	138	judge halt mayor soda ban call arbitrary capricious
12	138	ny judge block giant soft drink ban abc online judge block giant soft drink
886	180	sherlock
12	138	state judge stops york city soda ban calls program pointless mayor michael bloomberg plan ne
12	138	city appeal legal block ban large sugary drinks judge blocked bloomberg administration
1086	197	photo mad men advertisement brian sanders verge
893	192	study whooping cough vaccine immunity wanes study immunity dtap
12	138	bloomberg vow fight judge halt ban large sugary drink nyc douche bag
1086	197	mad men season poster
12	138	ap judge strikes nyc sugary drinks size rule
1084	129	angry birds reaches billion downloads celebrates animated series gill
272	149	nfl ge team concussion nfl commissioner roger goodell day distant future player
12	138	judge york nyc mayor ban selling soda oz huge win freedom
12	138	judge strike york sugary drink ban
12	138	ap news judge strike nyc sugary drink size rule enforcement set start tuesday
1086	197	loving season mad men poster year advertising illustrator brian sanders
31	146	ve checking everyday gmo labeling bill going introduced
1311	178	golf rankings tiger woods close rory mcilroy
163	114	mt detroit trouble undemocratic financial takeover loom mayor convicted
12	138	judge strike york sugary drink ban mayor bloomberg vow appeal ruling ban intended tackle
12	138	bloomberg ban sugary drinks tossed court york state supreme court justice tossed mayor
12	138	judge strike nyc sugary drink limit usa today abc news judge strike nyc sugary drink
1086	197	mad men season poster plot clues uncategorized
12	138	judge block york city large soda ban mayor bloomberg vow fight reuters
28	111	cut water half drought hit hard uvalde county san antonio express news
12	138	bloomberg confident nyc will win appeal sugary drink ban
12	138	judge block york ban giant soda
104	222	oz great powerful nice special opening movie
1107	217	lol sounds candidate real pope candidate axed trashy facebook photos
31	146	require genetically modified foods labeled
12	138	common judge halt mayor soda ban call arbitrary capricious
886	180	sherlock killed
55	157	news pregnant kim kardashian baby bump pump gas los angeles
1494	196	ap source google pay settle wi fi case
12	138	judge york doesn agree sugary drink ban
1407	206	color yarn cover dallas heritage village walking site yarn bomb installation lik
12	138	bloomberg confident nyc will win appeal drink ban
12	138	nyc judge overturns mike bloomberg arbitrary capricious soda ban
12	138	love mayor bloomberg york city giant soda ban dismissed
1107	217	american pope candidate embraces left share
1107	217	tagle course papal candidate clean sex abuse scandal victim group
31	146	foods call label food gene modified content reason eat local
1086	197	mad men theories based season poster
1086	197	thoroughly enjoying amc series amp season teaser poster
175	184	capriles maduro venezuela election caracas reuters presidential candidate
12	138	news update bloomberg confident nyc will win appeal drink ban
12	138	judge block nyc large soda ban bloomberg vow appeal
12	138	update judge law fraught arbitrary capricious consequences update ii bloomberg appeal decision
12	138	judge block nyc large soda ban bloomberg vow appeal usa today block nyc large soda ban bl
31	146	foods decision label gmos
1086	197	afternoon links mad men season poster free hollywood news
893	216	significance silent newly diagnosed type diabetes
786	145	national park service prepares sequester cut
1107	217	cardinals head conclave church woe vatican city reuters roman catholic cardinal gather und
12	138	health news judge blocks york city limits big sugary drinks york times york timesjudge
295	210	police release shocking footage drive attack shot dc morning guns dc
1214	210	graphic video injured dc drive shooting
12	138	oz freedom bloomberg soda ban blocked
12	138	ny ignore mayor state judge halt bloomberg ban large sugary drink fox news
1431	192	interesting article effectiveness whooping cough vaccine immunity doesn
12	138	mayor bloomberg appeal soda ban ruling report
904	215	tired hand cut snow blower
886	180	lt sherlock season prep going bbc
12	138	judge bloomberg democracy dictatorship york judge struck michael bloomberg ban jumbo soft dr
55	157	style gossip news pregnant kim kardashian baby bump pump gas los angeles lol
104	141	mila hot oz
12	138	ny mayor judge blocks ban mega sodas
12	138	judge block york ban giant fizzy drink
12	138	judge properly tosses york city soda ban
12	138	rare loss health wall street journal
886	180	sherlock holmes bussines people sherlock holmes
1086	197	don draper double poster mad men season
272	149	nfl goodell hope lighter helmet sensor
1086	197	mad men theories based season poster
12	138	nyc soda ban overturned free free god almighty free redeye tcot
680	186	will women shot lapd truck chief beck refers
12	138	bringing sanity discussion judge throw nyc ban large sugary drink fb
12	138	state judge stops york city soda ban calls program pointless
12	138	judge blocks york city ban big sugary drinks
181	198	hostess pe firm buy snack cake business auction needed ticker
267	139	video don frack mother anthem
181	198	hostess pe firm buy snack cake business auction needed
12	138	judge block york city large soda ban mayor bloomberg vow fight
902	115	beautiful day neighborhood beautiful day neighbor time bus rogers move
12	138	mayor nanny bloomberg surgery drink ny supreme court slap judge
12	138	judge soda ban mayor michael bloomberg dealt stinging blow monday state supreme court ju
12	138	cheer judge stopping bloomberg soda ban applies massive calorie diet don care
12	138	bloomberg confident nyc will win appeal sugary drink ban
155	160	social medium transforming med education ht hcsm
181	198	refile hostess pe firm buy snack cake business auction needed york march reuters hostess brands monday
1546	111	congress ki maharashtra drought taps dry govt water tanker sight
12	138	judge nix nyc big drink ban
7	210	hurt dc suspects remain large http hurt shooting suspect remain large tb
31	146	foods gmo labeling mandatory
12	138	judge block york city ban large sugary drink los angeles times news
12	138	soda size exercise news york judge struck mayor bloomberg ban large size
891	126	nowplaying pitbull ft chris brown international love listen
12	138	india indian judge block york city ban big sugary drink judge struck suryaray
12	138	judge halt bloomberg large soda ban day set york
889	128	tips buying clothes online guide buying clothes online making
12	138	youngest update nyc soda ban overturned business complied york month
12	138	nyc soda ban overturned business complied york month brother jimmy po
12	138	judge blocks york city limits big sugary drinks
12	138	bloomberg control freak soda ban struck judge fraught capricious consequence
48	195	standing argo deserve oscar argo fuck
12	138	judge block bloomberg pop ban
12	138	judge overturns york city ban big sugary sodas
31	146	grocery store answer consumer demand gmo food label topic health gmo gen
1107	217	papal conclave elect pope set
12	138	morning judge bloomberg plan ban supersize soft drink nyc discus airline experience min
1454	128	advantages buying clothes internet
12	138	judge block york city large soda ban mayor bloomberg vow fight
12	138	judge halt bloomberg large soda ban day set
1084	129	angry birds toons start airing
110	121	mooc perspective mt peer grading effective open online learning yam
12	138	judge block york city large soda ban mayor bloomberg vow fight
1685	159	future circular economy ellen macarthur foundation
12	138	judge strike nyc sugary drink size rule wall street journal york timesjudge strike nyc sug
1578	124	bobby brown sentenced days jail dui celebrity
12	138	york judge blocked city ban large sugary drink hour restriction
886	180	happy birthday great week promise second watch bbc sherlock holmes wait
1084	129	rovio tease angry birds
1086	197	will broadcasting mad men season
1107	217	papal conclave elect pope set news
12	138	top story twitter judge halts york city soda ban
12	138	top stories judge strike nyc sugary drink size rule wall street journal york daily st
1107	217	cardinals select pope conclave process selecting pope will underway
1214	210	hurt dc drive mar
1107	217	cardinals select pope conclave process selecting pope will underway news
48	195	reports iran considering lawsuit hollywood oscar winning movie argo
889	128	clothing amp accessories adorn sarah lewis store online credit philadelphia pennsylvania disc
89	176	best book club ve joined subscription great
12	138	judge block york city large soda ban mayor bloomberg vow fight
1084	129	rovio explain angry birds toons channel opens billion gamers
1107	217	unnamed cardinal call pope prospect political conclave
1086	197	fantastic artwork mad men series poster
12	138	judge scupper york soda ban minute day
12	138	judge halt bloomberg large soda ban
1307	202	amnesty explored fight boko haram el rufai minister federal capital
1107	217	aw austrian cardinal mom hope won pope christoph vatican
12	138	bloomberg confident soda ban will upheld rule banning oz soda set pla
12	138	sugary drink size matter court ruled york supersized soda
31	146	foods require labels gmo foods three cheer foods
12	138	judge blocks ban big sodas york city larger sized soft drink safe long
12	138	york city large soda ban blocked judge bbc news bbc york city large soda ban blocked
1203	195	entertainment argo iran sue film tehran planning file lawsuit follow skynews
25	153	bail appeal oscar pistorius oscarpistorius teamfollowback
891	126	nowplaying chick feat pitbull rap
89	176	blog post book club explore create art
532	175	win nemo nemo clownfish
1203	195	argo iran sue hollywood country portrayal oscar winning movie
1107	217	american pope cardinal dolan charm vatican fox news
1307	202	amnesty explored fight boko haram el rufai
1084	129	rovio angry birds smart phone living room medium opportunity video series
48	126	vintage pitbull best rapper best rapper africa smh
110	121	mooc update michael famous harvard course justice launch mooc tuesday
12	138	ny judge halt bloomberg ban large sugary drink
12	138	soda ban squashed big apple takes big gulp bloomberg vows fight
12	138	adityaramadana soda ban squashed big apple takes big gulp bloomberg vows fight
12	138	judge blocks ban big sodas york city larger sized soft drink safe long
886	180	sherlock
889	128	life place buy clothes online shopping win
1086	197	brian sanders man season mad men poster madmen
1107	217	good read candidate running pope
884	161	man percent skull replaced printed implant
1086	197	madmen season itunes
1126	214	common core triple forced teacher student
1307	202	fg grant amnesty boko haram militant el rufai minister federal capital territory
1307	202	fg grant amnesty boko haram militant el rufai teamfollowback
12	138	nyc soda ban puts brother jimmy plans comply ice
12	138	ny city big gulp york supreme court judge milton tingling finally brought common sense
12	138	judge halt mayor soda ban call arbitrary capricious finally common sense
12	138	york judge block ban sale large sugary drink
1107	217	cardinals urged overcome division conclave elect pope senior figure
155	160	social media changing higher education education socialmedia
12	138	judge blocks york city limits big sugary drinks
12	138	york big soda ban overturned court
1494	196	google pay settle wi fi case
1307	202	opinion contemplating amnesty boko haram nigerian observer
12	138	judge blocks york city limits big sugary drinks york judge struck york limit
110	121	big learning watching vids team planning mooc
12	138	nyc soda ban struck eventual soda tax
182	200	sex marriage bill completed commons cttee stage today amendment bill debate mps
1107	217	cardinals prepare choose pope work replace benedict xvi earnest tuesday cardin
1107	217	pope won french conclave elect successor pope benedict xvi tuesday
12	138	small pickup return massive star wars database court block nyc big soda ban
12	138	bloomberg confident nyc soda ban will win appeal melissa
893	223	dog improves fitness health dog running dog
893	173	statins prescribed good evidence doctor statin people
1107	217	bbc news rome conclave cardinals set elect pope
12	138	york city soda ban health fallout bloomberg legislation struck huffington post
12	138	judge block york city large soda ban mayor bloomberg vow fight joseph ax york reuters york
12	138	judge halt nyc ban large sugary drink belief cola sodaban nyc
12	138	york city large soda hybrid regulation solution blocked day introduction olson ec
12	138	york city unprecedented ban large sugary drink blocked controversial judicial ruling
12	138	sugary drink size matter court ruled york supersized soda
1107	217	conclave meet papal candidates
1107	217	papal conclave elect pope set hour
1086	197	nice story mad men hire year ad man straight swinging
55	157	google hot news kim kardashian reveals growing bump skintight mini dress gtnews
893	216	long term outcome tract infection diabetic patient free diabetes
134	138	commented poll large fizzy drink banned
12	138	ny post pour daily news suck tingling sensation judge milton tingling soda ruling
0	113	kal penn ldnont week quit acting work obama pretty fascinating guy
786	145	arizona national park visitor mixed
605	140	seriously people hate mail bury remains richard iii
1086	197	great article british commercial illustrator worked designed mad men poster
12	138	court reject soda ban york mayor attempt restrict soda drinking york
12	138	brtt court strike nyc soda ban bloomberg unhappy york city york judge tcot ccot tgdn
1107	217	dolan boston pope will piss catholic yr poor papal management yr ll sign top cardinal
40	218	par course report golfer swallowed sinkhole
891	126	nowplaying feel moment global warming pitbull christina aguilera
12	138	judge block york city sugary drink limit health
25	153	pistorius travel trial drew griffin report oscar pistorius request travel
12	138	judge smack bloomberg soda ban
1311	178	tiger woods title spite medium public hounding tiger finally woods
12	138	watch nyc super sized soda ban halted judge
40	218	golfer sinkhole scare illinois course
12	138	nyc soda ban overturned business complied
12	138	watch nyc super sized soda ban halted judge
40	218	golfer sinkhole scare illinois course
12	138	york soda size limit barred state judge nyc sodaban publichealth
12	138	judge block nyc large soda ban bloomberg vow appeal
1084	129	angry birds cartoon head tv screen helsinki reuters maker angry birds launching cartoon
31	146	wanted gmo food label marketplace listening
893	216	diabetes news alternative medication diabetic diabetes
1107	217	cardinals head conclave elect pope
40	218	golfer sinkhole scare illinois course st louis post dispatch report mortgage broke
40	218	golfer sinkhole scare illinois course st louis post dispatch report mortgage broke
532	121	moocs responding perfect storm compelling consideration support student institution
12	138	nanny soda ban struck super sized soda drinker york city sigh relief
891	126	international love pitbull
48	195	bad news movie argo big oscar win gb
175	168	venezuela probe chavez cancer poisoning accusation caracas reuters venezuela will set formal
1086	197	big fan mad men creator matthew weiner great poster promoting
55	157	kim kardashian maternity styles
175	168	venezuela probe chavez cancer poisoning accusation caracas reuters venezuela will set formal
40	218	golfer sinkhole swallow illinois course gotta scary hell
605	140	dean york police richard iii hate mail row remains king richard iii threatens
48	195	iran considering lawsuit oscar winning argo
891	126	feel moment pitbull ft christina aguilera
31	138	victory personal freedom article failed nyc
12	138	soda ban ruling devastating defeat mayor bloomberg walter olson public ne
12	138	judge nyc ban large sugary drink city plan appeal
40	218	golfer sinkhole scare illinois course
907	223	find best leash dog spring time outdoors pup
175	184	upcoming venezuelan vote hugo chavez looms large
181	198	hostess will sell twinkies hostess moving ahead plan sell twinkies snack cake
893	216	reduces frequency patient type diabetes biotech firm sciences
1107	217	conclave meet papal candidates hedge
605	140	politics dean york police richard iii hate mail row remains king richard iii
12	138	legal guide ny soda ban ruling
40	218	golfer sinkhole scare illinois course st louis post dispatch report mortgage broker coeur mo
12	138	react limit soda intake judge blocks york city limits big sugary drinks
40	218	illinois sinkhole mark mihal survives swallowed golf course
1084	129	yahoo news tech angry birds cartoon head tv screen
889	128	buytrends women clothing fashion design short sleeve dress buy
40	218	illinois golfer fall sinkhole middle fairway
1107	217	pray papal conclave don ll black man pope
272	149	nfl goodell hope lighter helmet sensor
173	186	women survived lapd bullet truck
1682	173	side statin drug
28	111	drought hit uvalde county drought forum yr regime drought
104	141	great review oz great powerful movie review
1307	202	gist amnesty boko haram worth exploring mallam el rufai
104	222	oz great powerful box office
173	186	live women injured dorner hunt truck
886	180	breaking benedict cumberbatch confirms sherlock series sherlock man
40	218	man fall foot sinkhole playing golf sport
886	180	breaking benedict cumberbatch confirms sherlock series sherlock
886	180	breaking benedict cumberbatch confirms sherlock series sherlock
886	180	brilliant news breaking benedict cumberbatch confirms sherlock series sherlock
210	122	launched kickstarter help wi startup
40	218	wut golfer illinois survives swallowed foot deep sinkhole
12	138	judge drink bloomberg milkshake rule giant soda ban illegal delight soda
12	138	judge drink bloomberg milkshake rule giant soda ban illegal delight soda drinker york
1107	217	cardinals open papal conclave sistine chapel
886	180	reading scully bbc sherlock
40	218	fairway sinkhole swallow golfer illinois golf course
40	218	golfer round ruined sucked giant sinkhole time charm
904	215	calgary craftsman snowblower calgary good condition craftsman snow series stage se
886	180	benedict cumberbatch confirms sherlock series
1494	196	google reach settlement state street view case tech news
12	138	york bloomberg pledge appeal super size soda drink ban blocked video york mayor mic
884	161	don kid man skull replaced um printer implant bon
886	180	benedict cumberbatch confirms sherlock series radio times poke
1494	196	google reach settlement state street view case
1086	197	mad men
886	180	didn realise missed benedict sherlock hair
40	218	golfer survives ft sinkhole
1126	214	working common core kindergarten amp base counting resources commoncore
1494	196	settlement state google acquiring data
1107	217	si boom elect pope elect pope conclave
31	146	foods mandatory gmo labeling initiative will year solve gmo problem
40	218	yeah won match golfer fall foot sinkhole fairway
82	225	barbara walters welcomed abc view week scratching rest
1494	196	google pay fine street view car gathered personal data wi fi network passed
1494	196	google pays total states settle street view wifi data collection case week
181	198	twinkies sold private equity deal
1494	196	google fined street view privacy settlement
886	180	sherlock series sherlock series
1494	196	google fined street view privacy settlement
1494	196	google fined street view privacy settlement google will fined privac
1107	217	cardinals historic conclave elect pope heavy wooden door sistine chapel
1494	196	google street view litigation agrees destroy collected data pay fine
181	198	bbc news canada twinkies sold private equity deal
1494	196	google street view litigation agrees destroy collected data pay fine goog
1107	217	sistine chapel door swing shut conclave elect pope
40	218	golfer survives fall course sinkhole friends managed mark mihal safety rope minute
1494	196	google street view litigation agrees destroy collected data pay engadget
1494	196	google fined street view privacy settlement google will fined privac
1494	196	google pays total states settle street view wi fi data collection case
886	180	street renamed cumberbatch street bus listening sherlock
889	128	girl order clothes online wet seal
1086	197	ugh wait mad men season poster plot clues
1494	196	google street view litigation google litigation engadget tech
1107	217	candidates pope
40	218	hole golfer fall sinkhole
1086	197	draper pass draper drawn poster madmen
1086	197	mad men draws original
1494	196	google agrees pay settlement streetview team collected data unsecured wifi
1494	196	google hit street view fine google agreed pay record fine collecting wi fi data
1494	196	news google hit street view fine
40	218	mo golfer survives fall il golf course sinkhole wonder hole
1086	197	season mad men season
1086	197	sneak peek mad men collection lauder
1086	197	latest greatest mad men teases don draper duality trailer
40	218	livewire mo golfer survives fall ill course sinkhole st louis ap suddenly bei
1494	196	google pays fine street view privacy breach fine secret collection
886	180	benedict cumberbatch sherlock season bbc sherlock production finally
181	198	hostess moving ahead twinkies sale bid mm rejoice
181	198	twinkies shelf summer
55	157	kim hard fashion wear kim won care celebritynews
1086	197	mad men teases don draper duality trailer
916	201	discovering higgs boson isn understanding universe headed
1307	202	respect mallam el rufai comment channels tv amnesty boko haram pointless
1494	196	google pay settle street view data collection privacy case read
886	180	benedict cumberbatch confirms sherlock series radio times
181	198	twinkies return summer hostess announces plan sell brand
40	218	golfer survives mid round foot sinkhole illinois course
1494	196	google pays total states settle street view wi fi data collection case pr
891	126	team pitbull feat david rush amp pitbull night starkillers remix cover art
12	138	york city department health formally appeal monday sugary drink ruling
1086	130	mad mad afford best lawyers advised hire best judges sick joke
40	218	golfer fall ft fairway sinkhole
12	138	bloomberg vow push york soda restriction term measure struck state
1203	195	iran sue hollywood series film including oscar winning argo tehran hire french lawyer
104	222	imdb estimate oz third best march opener
104	222	estimate oz third best march opener
1307	202	fg grant amnesty bokoharam militant post pic bh member
40	218	golfer survives sinkhole illinois course
1494	196	google fined street view privacy breach google agreed pay result
40	218	golfer fall ft fairway sinkhole
1505	194	work led conclusion kind cherry blossoms festival dc
886	180	benedict cumberbatch return sherlock absolute
40	218	sinkhole golfer rescued pit
904	179	iditarod white mountain thing going drive dog hard mile
1195	147	alessandra ambrosio amp candice swanepoel victoria secret bikini swim video promo alessandra ambrosio
1494	196	google fined street view data collection
181	198	twinkies buyer return summer hostess moving ahead plan sell chicago
1494	196	post google pays total states settle street view wi fi data collection case
1494	196	google settles states wi fi spying charges google caught siphoning data
889	128	women fashion amp designer clothes online
886	180	benedict cumberbatch confirms sherlock series
1494	196	headlines crain google pay fine settle wi fi privacy case google will pay douglascastle
886	180	sherlock sherlock
12	138	watch mayor bloomberg appeal blocked sugary drinks ban
12	138	msnbc host flips soda ban overturned accuses soft drink makers poisoning children
1086	197	mad men poster subtly hinting dick will legal trouble stealing don draper going
181	198	dealbook hostess picks apollo led group owner twinkies stocks
104	141	sam raimi oz great amp powerful james franco amp mila kunis great
238	111	pay attention water flushing fire public pool trees drought
1494	196	google fined hotspot data grab afp fined hotspot data
1086	197	mad men teases don draper duality trailer mad men return amc month
1494	196	google google pay fine settle wi fi privacy case
889	128	buying clothes online lt
1104	133	introducing interrupt scheduled cruise review safety
1663	130	presentation regulation lawyer joke
1203	195	iran claim hollywood distorted country image series film including oscar winning argo
12	138	mayor nyc soda decision temporary setback lifestyle science
1494	196	google collect street view data map collect data unsecured wireless network
181	198	owner twinkies cream filled snack shelf summer
181	198	twinkies buyer hungry hostess cake offer drake drake coffee cake kramer
25	153	breaking news pistorius travel trial
188	139	hey sing watch video pas
184	222	box office drew filmgoers oz great powerful
886	180	benedict cumberbatch confirms sherlock will continue season collider bbc bbc benedict
104	222	oz great powerful opening weekend
1086	197	mad men teases don draper duality trailer rolling stone
77	158	pork mac cheese yam hush puppy
12	138	soda ban blocked judge big gulp trump free speech injunction denied fired wasn harm
893	192	protection pertussis vaccine wanes time fm
175	168	venezuela probe chavez cancer poisoning accusation andrew cawthorne caracas reuters venezuela will
25	153	oscar pistorius blade lawyer appeal bail condition
12	138	guide nyc soda ban decision
182	200	gay marriage bill passed senate floor omg happy step closer love happiness
181	198	yum twinkies making big return twinkies hostess snack shelf summ mesa
1086	197	amc taps classic ad man man men season poster
12	138	judge halt york city ban large sugary drink york cnnmoney york city planned ban
181	198	hostess brands selects apollo global management amp winning bidder majority brand
1086	197	video cast mad men talks upcoming season great gatsby open cannes michelle obama financial info
181	198	winners emerge twinkies auction hostess seek sell twinkies cake brand
104	141	malik lol james glinda omg mila kunis michelle williams pretty malik
181	198	twinkies coming beloved hostess snack cake haven store shelf november
12	138	proposed york city ban sugary drink halted judge
886	180	las pel holmes serie sherlock elementary
1494	196	google pays settle street view snooping case
1494	196	google pays settle street view snooping case
1494	196	google fined will beef privacy training street view settlement
12	138	msnbc host flips soda ban overturned accuses soft drink makers poisoning children real left
886	180	best news year benedict cumberbatch confirms sherlock series sherlock definitely
181	198	twinkies summer bid
12	138	health mayor nyc soda ruling temporary setback
1686	126	pitbull ranked number
1104	133	cruise conference update safety issues industry impacts
104	141	yellow brick road oz great powerful movie review
1084	129	angry birds cartoon head tv screen click
605	140	dean hate mail richard lll
14	212	kate middleton buy maternity dress topshop love duchess buying dress
886	180	finishing season sherlock holmes bbc nightly prep europe
1494	196	google fined unauthorized street view data collection
181	198	biz twinkies return expected summer hostess owner
238	111	drought friendly landscape lt gt public works lt gt yard promote water lt gt
12	138	day ban sugary drink fizz mayor seek volunteer reduce size soda york city mayor
181	198	twinkies return expected summer hostess owner
175	168	maduro order chavez poisoning probe dark claim day hugo chavez died
1505	194	cherry blossom festival dc weekend idk
175	168	business news venezuela probe chavez cancer poisoning accusation caracas reuters
175	168	venezuela probe chavez cancer poisoning accusation caracas reuters venezuela wi sougofollow
175	168	venezuela set formal inquiry claims hugo chavez poisoned cancer enemies
1687	198	twinkie appears set revival
267	139	sean lennon yoko ono artists fracking don frack mother
1126	214	common math standard supported study
1307	202	video amnesty explored fight boko haram el rufai
175	168	venezuela probe chavez cancer poisoning accusation well cancer
1086	197	mad men season teaser madmen tv advertising
175	168	venezuela probe chavez cancer poisoning accusation caracas march venezuela will set formal inqu
104	222	oz great powerful opens overseas domestic launch oz movie
1494	196	google admits street view project violated privacy technalogy
1494	196	google admits street view project violated privacy
89	176	video book club
1494	196	google admits drive data collection privacy breach reading deleted goog app
1494	196	video google reaches settlement wi spy case
907	189	heard dog dog yelp dog attacked window pet
12	138	mayor nyc soda ruling temporary setback
55	157	kim kardashian pregnant star rock cool beverly hills celeb photo
181	198	twinkies sold will mississippi declare state holiday
12	138	msnbc host flips soda ban overturned accuses soft drink makers poisoning children
1494	196	google fined mn street view privacy breach press tv infosec
1494	196	fine pocket change google net income day
104	141	mila kunis movie gorgeous arg pretty lovee lmfao lt well turned wicked witch
12	138	sweet ny judge declares bloomberg sugary soda ban illegal
1494	196	google admits drive data collection privacy breach
886	180	watson sherlock holmes
175	168	chavez poisoning dark claim day hugo chavez died surprise
12	114	detroit city council appeal financial manager decision montana
12	138	nyc soda ban brought halt supreme court judge york city mayor bloomberg controversial ban food
155	160	social medium transformation medical education
916	201	god particle higgs boson
12	138	judge invalidates bloomberg ban sugary drinks arbitrary capricious news
181	198	best news ve heard morning twinkies shelf summer bid
104	141	best thing mila kunis youtube video love mila kunis
1494	196	google settle data probe compensation google google paying
104	141	good movie mila kunis wicked witch
181	198	private equity firm buy twinkies hostess brand
77	158	mad burn damn hush puppy onion ring
1494	196	google hit street view fine
1494	196	google admits drive data collection privacy breach
12	138	post edited bloomberg hard time swallowing judge decision nix large soda ban york daily news
175	168	scientists will study chavez poisoning venezuelan leader
175	168	venezuelans stupid deserve chavez
12	138	celebrity people cannes gatsby theater owners toast nyc soda ban defeat exits medium news
891	126	jennifer lopez floor ft pitbull
181	198	hostess bid twinkies
175	168	venezuela probe chavez cancer poisoning accusation andrew cawthorne caracas reuters venezuela will
1494	196	google pay fine collecting people personal data street view
104	141	listened bbc radio film review disagree oz horrible main star meh mila save
889	128	clothes online
104	141	oz great powerful awesome movie mila kunis scary haha
12	138	nyc appeal soda ban ruling bans
1681	111	maharashtra drought worse living memory celebrate holi water year
181	198	twinkies shelf summer bid
1494	196	neh google pay fine collecting people personal data
181	198	good thing hostess cupcakes twinkies find savior
605	140	fail telegraph dean york police richard iii hate mail
605	140	york church leader abused richard iii burial row head historic british church york minster cont
1688	121	expert panel brings clarity moocs business moocs
55	157	latest kim kardashian flaunt growing baby bump white pencil skirt peach blouse celebrity
55	157	kim kardashian flaunt growing baby bump white pencil skirt peach blouse working hard
12	138	york city ban big sugary drink struck intelligence
1494	196	google fined will beef privacy training street view settlement washington post tcot
1689	119	rescue robotic bees backup plan colony collapse disorder
3	121	legislator will propose today level privatization highered seeking mooc credit
1494	196	definitely agrees google
893	216	smaller waist decrease risk metabolic syndrome obesity type diabetes lead average cost yr
1494	196	google hit street view fine
1494	196	google google pay street view privacy
1494	196	google fined violating privacy street view
904	215	hp commercial duty stage gas snow blower electric start inch
104	141	best interview mila kunis talk chris stark scott mills british radio
31	146	gmo poll finds huge majority foods labeled
605	140	dean york hate mail final resting place richard iii
891	126	pitbull christina year ve pitbull christina perform live
175	184	venezuela mourning hugo chavez death election season begun latest amp
886	180	benedict cumberbatch slip news sherlock fourth series
1307	202	fg grant boko haram amnesty boko haram terrifying force continue undermine
181	198	rpt hostess cupcakes twinkies find savior
891	126	started pitbull ft shakira
1494	196	management google fined authority management today share friends
1494	196	bbc news google hit street view fine
1494	196	google admits violating privacy street view cars goog
1494	196	google hit fine collecting wireless data
31	146	support company support prop label gmo country
1086	197	mad men cast glamorous season promo picture
175	168	venezuela probe chavez cancer death conspiracy venezuelan vice president scary
181	198	long live twinkies snack brand bought private equity firm brand worth half bi
1494	196	google admits violating privacy street view cars goog google agreed pay
893	216	sugar main type ii diabetes factor
1086	197	mad men teaser poster amc madmen
1494	196	scitech news google pay fine settle wi fi privacy case google will pay fine settle
181	198	twinkies expected summer hostess owner brand worth
605	140	cathedral reveals richard iii plan
605	140	point richard doesn care plant
889	128	buy award winning instrumentals check clothing brand
1494	196	google hit fine wifi snooping street view car technews
1494	196	big brother google admits drive data collection privacy breach
886	180	sherlock holmes bussines people sherlock holmes
181	198	owner hope twinkies store story
1494	196	google outruns real penalties street view lawsuit
104	141	oz great powerful sucks film fanatic movie frida
181	198	twinkies return expected summer hostess owner
104	222	oz great powerful going huge weekend disney oz great
31	146	vermont state mandatory gmo food labeling law
1494	196	google outruns real penalties street view lawsuit
181	198	twinkies return expected summer hostess owner
1690	122	venture appearing kickstarter kickstarter fails
1494	196	google pay fine settle wi fi privacy case
181	198	twinkies shelf summer bid twinkie
104	141	movie reviews movie review oz great powerful reel life
891	126	team pitbull feat david rush amp pitbull night starkillers remix
886	180	sherlock series air christmas benedict cumberbatch radio times
1494	196	google fined privacy violation oops
889	128	urban clothing day suffering clothing style panther tee
110	121	california bill encourage mooc credit public college inside higher
1494	196	google admits violating user privacy fined google settled case brought state
1494	196	google acknowledged violated people privacy snooping personal data street view project
1494	196	wallstreet journal google settle street view case
181	198	big news flash twinkie saved lnyhbt
181	198	long national nightmare twinkies return expected summer hostess owner
1303	143	soccer scramble finish rio janeiro cup soccer stadium atlantic
12	138	judge stops nyc ban sugary drinks sodas honestly mike bloomberg happy judge
1086	197	mad men picture pete good
886	180	photo update sherlock holmes sherlock holmes special germany
680	186	woman truck shot lapd mistaken black guy will
110	121	california bill encourage mooc credit public college college highered mooc
1691	128	blog
891	126	pitbull time mash
1086	197	swag eyeball madmen season promo image amc hitfix
891	126	pitbull ready party kids choice awards
680	186	lapd buster going charge lady shot truck
1303	143	maracana stadium will ready england clash brazil property news brazilian authority
1494	196	google admits drive data collection privacy breach
31	146	foods decision gmo labeling news canada
1494	196	google fined street view privacy issue
1494	196	google google easy wi spy settlement
1307	202	boko haram reply president jonathan ghost sheikh mohammed abdul aziz group faction
1307	202	boko haram reply president jonathan ghost sheikh mohammed abdul aziz group faction
173	186	lapd man alive bullet news carrier lady truck won replace truck
1494	196	google pay privacy case lake samuel burke fine
100	158	chicken bacon wrapped shrimp orzo spicy oyster hushpuppies item
891	126	dancing stars sean lowe season cast moves pitbull music video watch
889	128	wait clothes love online shopping better going store clothes
181	198	twinkies return expected summer hostess owner
12	138	ap news judge strike nyc ban supersized soda
238	111	pc maha budget drought relief water conservation business standard
893	216	online risk hospitalization acute pancreatitis type diabetes mellitus
896	126	pitbull follow voting
891	126	night feat david rush amp pitbull starkillers remix radio edit team pitbull night feat david rush
31	146	vermont state mandatory gmo food labeling law
89	176	yeah monthly book club called books
89	136	girl shouldn amp list book people
1663	130	don shark bite lawyer professional courtesy
241	206	yarn bomb check jill fantastic lady
893	216	find latest link coffee prevention type diabetes report
31	146	activism forces foods adopt mandatory gmo labeling nationofchange
1086	197	mad men season cast promotional photos full set hq
1692	122	crystal based short story philip dick gc kickstarter
889	128	facebook online clothing store clothes
181	198	hostess brands selects winning snack cake business
907	223	find best leash dog spring dog walk
1307	202	tribune poll president supported amnesty boko haram member
1303	143	scramble finish rio cup stadium
889	128	online shopping holiday clothes buzzing
1086	197	mad men teases season suit mad men headed office april don draper gang
1086	197	forgot missed don draper
1086	197	mad men teases season suit mad men headed office april don draper gang
1086	197	mad men teases season suit mad men headed office april don draper gang
1086	197	mad men teases season
55	131	trash dress fun grand photo treasure
799	164	injured vonn handed downhill title fog denies maze
238	113	meet kal penn raffle will place enter tv penn
1502	111	drought drought assistance altusok agchat
799	164	skiing injured vonn win downhill title year ago lindsey vonn suffered weather god
36	193	man set fire bulgaria bulgarian man set fire parliament sofia fo
36	193	man set fire bulgaria bulgarian man set fire parliament sofia fo
36	193	man set fire bulgaria bulgarian man set fire parliament sofia fo
104	222	scott weekend box office oz great powerful summons signs
896	126	type people listen flo rida pitbull isn music
12	138	hello facebook friends relieved mayor bloomberg ban large soda dismissed judge
1126	214	blog bill drop common core alabama killed state senate alpolitics
1294	209	mario est une son chelyabinsk
1307	202	amnesty boko haram criticize sultan
181	198	twinkie snack store summer
110	121	moocs life stuff
110	121	bye faculty time mooc california bill seeks campus credit online study
104	222	social medium working wizardry movie oz great powerful top box office chart
1693	206	katy pup sporting st day collar yarn allied arts reuse store
1582	174	hubble telescope data weather methuselah star older universe
110	121	child wealthy will subject mooc based education elite
605	140	richard iii interred place simple dignity leicester cathedral
890	123	solar fireworks sun erupts coronal mass
181	198	twinkies summer hostess owner
12	138	icymi food legal applauds court decision scrap nyc soda ban helped fight sodaban
889	128	button moon childrenswear shop online designer clothing baby amp child
1079	223	leash handling skills
12	138	nyc judge overturn large soda ban day set restaurant franchise rejoice
40	163	guest post escaping capital bitcoins submitted simon black sovereign man blog
889	128	heart clothing shirt fitted hat online ave bx ny
1195	147	great white blue dream purple victoria secret commercial controversial enjoy em gettin oral
110	121	users grade free online course inside higher mooc education
1086	197	mad men season inside mad men amc tv
55	157	kim chill dress wearing real maternity clothing woman
163	114	rick snyder detroit takeover plan democracy nation
12	138	york city appeal soda ban ruling heard june york reuters legal battle
110	121	massive open online courses aka moocs transform higher education science campus president wallace
12	138	york city appeal soda ban ruling heard june
916	201	higgs particle referred god particle science mystery
893	216	molecule structure reveals therapeutic opportunities rare diabetes mar researchers
241	206	natural yarn
1126	214	check support common core standards
175	184	venezuela hugo chavez preserved eternity
680	186	police destroy women truck dorner chase promise charge taxes
889	128	online women consignment clothing free credit coupon code
889	128	online women consignment clothing free credit coupon code
55	157	kim kardashian maternity style evolution pumping gas showing
1684	111	iran water shortage burning rage water iran farmers security forces
1126	214	common core resources teachers ccss
799	164	cancellation helps injured vonn win downhill title sport
181	198	twinkies return expected summer hostess owner
1126	214	excellent resources help align teaching common core standards
605	140	aftermath richard iii discovery hate mail
55	157	kim kardashian kanye west huge style decision
891	126	pitbull bud light perfect storm terrible celebrity terrible product
890	123	sun popped coronal mass ejection day day sun popped
31	146	activism forces foods adopt mandatory gmo labeling nationofchange
889	128	clothing dirt bike clothing sports gear accessory onlin
175	184	venezuela hugo chavez preserved eternity late venezuelan president
77	158	grilled catfish hushpuppy fried chicken restaurant amp bar
104	141	mila kunis oz disappointed
110	121	curious mooc movement highered
14	212	kate eco opportunity kate middleton tough february photo sporting bikini baby
55	157	pregnant kim kardashian spotted shopping baby kardashian kourtney kardashian
31	146	monsanto illegal vote gmo food bill sb listen
1075	136	finished sharp objects novel gillian flynn star
1683	114	detroiters pledge uprising state takeover
1694	134	abc big fan
181	198	best news year twinkies shelf summer
31	146	foods gmo labeling mandatory
106	135	military robotics boston dynamics big dog youtube watch robots slip recover ice
1494	196	news analysis google focuses privacy street view settlement google executive realizing pe
104	141	oz good james franco mila kunis fab thing threw wicked witch wicked story
11	142	reuters exclusive iran step weapon lifeline syria assad envoy
786	145	park ranger supervisors pushed sequester cut visitor fox news
11	142	exclusive iran step weapon lifeline syria assad envoy reuters
33	123	sitting solar flares youtube grid impact
77	158	catfish hush puppy
1075	136	reading girl gillian flynn notice time going sleep
12	138	york city appeal soda ban ruling heard june lifestyle science
175	184	maduro chavez embalming difficult plan embalm body venezuelan president hugo chavez
175	184	maduro chavez embalming difficult plan embalm body venezuelan president hugo chavez
175	184	maduro chavez embalming difficult plan embalm body venezuelan president hugo chavez
1494	196	google formally settle wi fi data collection case
1503	163	invitation virtual currency system
1099	122	break rip studios kickstarter
11	142	diplomats iran step weapon lifeline syria assad iran increased military support syrian
110	121	trend report massive open online courses march pdf education elearning edtech
11	142	diplomats iran step weapon lifeline syria assad iran increased military support syrian
11	142	diplomats iran step weapon lifeline syria assad iran increased military support syrian
799	164	skiing injured vonn win downhill title march
1695	173	muscle relation decreased function
916	201	cern confirmed find higgs boson type
1104	133	report troubled carnival ship month fire crippled carnival ship gulf mexico
1104	133	report troubled carnival ship month fire crippled carnival ship gulf mexico
1104	133	report troubled carnival ship month fire crippled carnival ship gulf mexico
1104	133	report troubled carnival ship month fire crippled carnival ship gulf mexico
893	216	breakfast raise risk developing diabetes harvard researcher nutrition
886	180	video benedict cumberbatch interview sherlock series amp star trek
110	121	great article scientific american massive open online courses aka moocs transform higher education
916	201	breaking physicists confident discovered long sought higgs boson
1494	196	az join settlement google street view tcot
916	201	analysis indicates particle higgs cern topnews
1494	196	news analysis google focuses privacy street view settlement
891	126	pitbull
48	170	argo
916	201	physicists long sought higgs boson
12	138	blocked nyc soda ban leaf bitter taste york city ban large size sugary drink ov
916	201	physicists higgs boson physicists confident chicago news
916	201	higgs boson discovery unconfirmed
916	201	indicate particle discovered year higgs boson cern
916	201	physicists higgs boson
916	201	physicists higgs boson geneva ap physicists
916	201	lhc cement higgs boson identification scientists large hadron collider particle outlined july
916	201	bbc scitech lhc cement higgs identification scientists large hadron collider particle
916	201	lhc cement higgs boson identification scientists large hadron collider particle outlined
916	201	cern higgs boson aka god communist will
916	201	cern release preliminary particle higgs boson cern latest update
916	201	cern release preliminary particle higgs boson technews engadget
916	201	reading cern release preliminary particle higgs boson
916	201	physicists higgs boson physicists confident discovered lon
916	201	lhc cement higgs identification scientists large hadron collider particle teamfollowback
891	126	pitbull ft nayer pearly gates gala gala remix video edit
1675	121	bold move moocs sends shock waves details government
188	147	wes traded super bowl victoria secret commercial
916	201	higgs boson confirmed cern scientist news googlenews
916	201	analysis indicates higgs boson cern geneva reuters analysis track element
893	216	study reveals cells therapeutic targets alter obesity associated inflammation type diabetes
916	201	particle higgs boson particlephysics higgsboson
916	201	particle higgs boson july scientist announced
916	201	particle higgs boson
11	142	exclusive iran step weapon lifeline assad reuters
916	201	scientists confident discovered god particle
916	201	analysis indicates higgs boson cern tech technology sciencenews
916	201	physicists confirm find higgs boson analyzing half time data initial finding
916	201	physicists discovered long sought higgs boson particle geneva physicists sa ny news nynews
916	201	news lhc cement higgs identification
916	201	urgent physicists particle higgs boson
916	201	higgs boson particle called god particle discovered physicist
916	201	physicists higgs boson
916	201	scientists confident discovered god particle telegraph
916	201	particle higgs boson
893	216	therapeutic targets alter inflammation type diabetes boston university school
916	201	ho cern physicist higgs boson
916	201	confident cern physicist particle higgs boson physicists thursday
181	198	billionaire gobble twinkies hostess snacks sold forbes
916	201	breaking physicists long sought higgs boson
916	201	physicists long sought higgs boson
916	201	higgs boson scientist bbc
916	201	higgs boson particle discovere
1126	214	case common core sic state standards top links
916	201	physicists higgs boson major discovery will help explain universe
1104	133	report troubled carnival ship month fire crippled carnival ship gulf mexico
916	201	cern release preliminary particle higgs boson cern latest update god particle pro
1104	133	report troubled carnival ship month fire crippled carnival ship gulf mexico
916	201	physicists higgs boson
916	201	followback physicists confirm higgs boson discovery teamfollowback
1494	196	google street view google fined practice collecting data crea
1494	196	google street view google fined practice collecting data crea
916	201	indicate particle discovered cern higgs boson
1494	196	google pay laughably fine wi fi slurp
916	201	major discovery will help explain universe
916	201	higgs boson particle discovered physicist physicists thursday confident dis
916	201	physicists higgs boson
916	201	case higgs boson strengthened cern analysis businessweek national postcase headline news
916	201	case higgs boson strengthened cern analysis businessweek national postcase higgs boson
1494	196	google pay fine violating privacy street view
36	193	fourth bulgarian protester set fire
916	201	physicists confident higgs boson
1104	133	carnival cruise ship stuck port generator problem reuters carnival cruise lines ship stuck
1104	133	passengers power outage overflowing toilet carnival cruise ship cnn passengers power outage
916	201	lhc cement higgs identification exciting physic particlephysics
916	201	physicists ve god particle good read
916	201	physicists higgs boson
1104	133	carnival cruise ship stuck sea passenger
916	201	pope francis work fast scientists ve god particle
916	201	researchers higgs bosom appropriate pi day
916	201	god particle physicists higgs boson
36	193	fourth immolation bulgaria month bbc news bulgaria protest immolation sofia
916	201	breaking physicists confident discovered long sought higgs boson
916	201	afraid higgs boson discovery confirmed physicists review hadron collider data
916	201	higgs boson experts god particle scientists subatomic particle fo
1104	133	carnival cruise ship encounter problem miami ap month carnival cruise ship strand
175	168	live venezuela chavez cancer daily caller
916	201	physicists claim higgs boson
916	201	physicists confirm groundbreaking god particle finding
1104	133	carnival cruise ship encounter problem miami ap month carnival cruise ship stranded
886	180	free sherlock holmes scholar challenge conan doyle estate los angeles times
110	121	california educational faction eye plan offer mooc credit public college inside higher
155	121	site education moocs
799	164	injured vonn win downhill title despite injured lindsey vonn win record sixth straight cu
1104	133	cruise ship power cut full toilet month fire crippled carnival ship gulf mexico
1104	133	carnival cruise ship encounter problem
1104	133	cruise ship power cut full toilet month fire crippled carnival ship gulf mexico
916	201	cooper call office physicists long sought higgs boson fox news
1104	133	news actuality cruise ship power cut full toilet month fire crippled worldnews cnn
238	111	drought force water restriction denver ap colorado largest water provider
1104	133	cruise ship power cut full toilet month fire crippled carnival ship gulf mexico
916	201	analysis indicates higgs boson cern
886	180	sherlock holmes yo soy watson
1104	133	dc washington breaking news carnival cruise issues cruise ship dream read
1311	178	video tiger sell driver commercial alex myers tiger woods won golf
916	201	physicists higgs boson crucial building block universe
916	201	scientists confident long sought higgs boson national post national post
1696	119	bee conservation eu banning three pesticide start benjamin
1104	133	carnival cruise ship stuck great year carnival
886	180	sherlock holmes
896	126	pitbull shit rapper isn
916	201	thought higgs
1104	133	breaking news carnival cruise ship encounter problem
1075	136	fingers gillian flynn girl women fiction prize return announces
1104	133	carnvial circus cruise ship suffers power outages overflowing toilets
916	201	cern physicist pretty ve higgs boson researcher
1104	133	carnival cruise ship reporting equipment problem don cruise
916	201	news physicists ve discovered god particle usa today
1104	133	carnvial circus cruise ship suffers power outages overflowing toilets ti
916	201	cern release preliminary particle higgs boson
916	201	higgs boson particle officially biggest scientific discovery st century
1307	202	emir anka opposes amnesty boko haram members
916	201	real news scientists ve god particle conspiracy
916	201	higgs boson seal fate universe
916	201	cern staff discus particle higgs boson live cdt cern higgsboson
916	201	god particle update scientists ve pinned higgs boson
916	201	higgs boson discovery confirmed physicists review large hadron collider data cern
916	201	physicists higgs boson
11	142	exclusive iran step weapon lifeline assad
886	180	testament sherlock holmes play ep
172	124	wwe star arrested second time dui charges wwe
1104	133	carnvial circus cruise ship suffers power outages overflowing nwo
1104	133	carnival cruise ship dream moor repair st australian carnival cruise ship dream moor
110	121	moocs save academic freedom
1104	133	carnival cruise ship stuck port generator problem reuters carnival cruise lines ship stuck
916	201	particle physicist cern finally confirmed particle announced july higgs
1126	214	board education odds lawmaker common core
1104	133	second cruise ship month reports problems month carnival cruise lines ship left pa
1075	136	girl novel reading book loving
916	201	closer lhc cement higgs boson identification
916	201	ap news physicists higgs boson
14	128	outfit post featuring piece online shopping launch
1104	133	cruise ship stranded sb carnival
916	201	higgs boson motion designer loose pen
1407	206	laughing yarn longer hair yarn lol
916	201	ve proven higgs boson
916	201	physicists higgs boson step
916	201	higgs boson confirmed yesterday col ruled day pope today turn
916	201	confirmed newfound particle higgs long sought god particle mass matter
916	201	physicists long sought higgs boson
916	201	higgs boson discovery confirmed cbc news good
1104	133	carnival cruise ship carnival dream suffered power problem ship toilet working hour
1104	133	carnival cruise awry month carnival triumph cruise ship fiasco left stranded proper toi
1697	201	confirmed
916	201	bbc news lhc cement higgs boson identification
916	201	higgs boson stay tuned
886	180	photoset sevnilock bbc sherlock trust johnlock px complete picture
916	201	closer higgs boson
916	201	update growing consensus higg boson exists long slow road discovery
89	176	month warcraft well read book club reading demon soul richard join discussion
916	201	higgs boson god particle confirm cern scientist indian express googlenews
916	201	god particle higgsboson cern
891	126	tshirt pitbull
1494	196	google pay state collection user data wifi hotspot street view car project privacy
896	126	scale pitbull flo rida stfu el
916	201	wallstreet journal data boosts case higgs boson find
916	201	day pope help science confirm god particle cool vid gt
916	201	strong sign higgs boson cern
916	201	strong sign higgs boson cern stocks
916	201	strong sign higgs boson cern
799	164	lindsey vonn win downhill title despite knee injury switzerland foxnews li
1609	209	nasa fireball website launches russian meteor explosion details
916	201	confirmed newfound particle higgs
916	201	confirmed particle higgs boson
